
tests/9-bitbang-write.elf:     file format elf32-littlearm


Disassembly of section .text:

00008000 <__code_start__>:
    8000:	e3a00013 	mov	r0, #19, 0
    8004:	e3800080 	orr	r0, r0, #128, 0	; 0x80
    8008:	e129f000 	msr	CPSR_fc, r0
    800c:	e3a01000 	mov	r1, #0, 0
    8010:	ee071f95 	mcr	15, 0, r1, cr7, cr5, {4}
    8014:	e3a0d302 	mov	sp, #134217728	; 0x8000000
    8018:	e3a0b000 	mov	fp, #0, 0
    801c:	eb0014a4 	bl	d2b4 <_cstart>
    8020:	eb0014e0 	bl	d3a8 <rpi_reboot>

00008024 <PUT32>:
    8024:	e5801000 	str	r1, [r0]
    8028:	e12fff1e 	bx	lr

0000802c <GET32>:
    802c:	e5900000 	ldr	r0, [r0]
    8030:	e12fff1e 	bx	lr

00008034 <BRANCHTO>:
    8034:	e12fff10 	bx	r0

00008038 <bitbang_write>:
    8038:	e92d4070 	push	{r4, r5, r6, lr}
    803c:	e1a06000 	mov	r6, r0
    8040:	e59f3070 	ldr	r3, [pc, #112]	; 80b8 <bitbang_write+0x80>
    8044:	e5931000 	ldr	r1, [r3]
    8048:	e16f1f11 	clz	r1, r1
    804c:	e1a012a1 	lsr	r1, r1, #5
    8050:	e5831000 	str	r1, [r3]
    8054:	e3a0000b 	mov	r0, #11, 0
    8058:	eb0015e2 	bl	d7e8 <gpio_write>
    805c:	e3a04000 	mov	r4, #0, 0
    8060:	e59f3054 	ldr	r3, [pc, #84]	; 80bc <bitbang_write+0x84>
    8064:	e1540003 	cmp	r4, r3
    8068:	c8bd8070 	popgt	{r4, r5, r6, pc}
    806c:	e3a01000 	mov	r1, #0, 0
    8070:	e3a0000a 	mov	r0, #10, 0
    8074:	eb0015db 	bl	d7e8 <gpio_write>
    8078:	e3a00001 	mov	r0, #1, 0
    807c:	eb0014ea 	bl	d42c <delay_us>
    8080:	e264300f 	rsb	r3, r4, #15, 0
    8084:	e3a05001 	mov	r5, #1, 0
    8088:	e0163315 	ands	r3, r6, r5, lsl r3
    808c:	11a01005 	movne	r1, r5
    8090:	03a01000 	moveq	r1, #0, 0
    8094:	e3a0000d 	mov	r0, #13, 0
    8098:	eb0015d2 	bl	d7e8 <gpio_write>
    809c:	e1a01005 	mov	r1, r5
    80a0:	e3a0000a 	mov	r0, #10, 0
    80a4:	eb0015cf 	bl	d7e8 <gpio_write>
    80a8:	e1a00005 	mov	r0, r5
    80ac:	eb0014de 	bl	d42c <delay_us>
    80b0:	e0844005 	add	r4, r4, r5
    80b4:	eaffffe9 	b	8060 <bitbang_write+0x28>
    80b8:	000106b0 	.word	0x000106b0
    80bc:	000270ff 	.word	0x000270ff

000080c0 <notmain>:
    80c0:	e92d4010 	push	{r4, lr}
    80c4:	e59f002c 	ldr	r0, [pc, #44]	; 80f8 <notmain+0x38>
    80c8:	eb001341 	bl	cdd4 <printk>
    80cc:	eb00000d 	bl	8108 <i2s_speaker_init>
    80d0:	e3a01001 	mov	r1, #1, 0
    80d4:	e3a0000d 	mov	r0, #13, 0
    80d8:	eb00157c 	bl	d6d0 <gpio_set_function>
    80dc:	e59f0018 	ldr	r0, [pc, #24]	; 80fc <notmain+0x3c>
    80e0:	eb00133b 	bl	cdd4 <printk>
    80e4:	e59f0014 	ldr	r0, [pc, #20]	; 8100 <notmain+0x40>
    80e8:	ebffffd2 	bl	8038 <bitbang_write>
    80ec:	e59f0010 	ldr	r0, [pc, #16]	; 8104 <notmain+0x44>
    80f0:	eb001337 	bl	cdd4 <printk>
    80f4:	e8bd8010 	pop	{r4, pc}
    80f8:	0000dc28 	.word	0x0000dc28
    80fc:	0000dc40 	.word	0x0000dc40
    8100:	0000ffff 	.word	0x0000ffff
    8104:	0000dc68 	.word	0x0000dc68

00008108 <i2s_speaker_init>:
    8108:	e92d4010 	push	{r4, lr}
    810c:	eb001494 	bl	d364 <dev_barrier>
    8110:	e3a01004 	mov	r1, #4, 0
    8114:	e3a00012 	mov	r0, #18, 0
    8118:	eb00156c 	bl	d6d0 <gpio_set_function>
    811c:	e3a01004 	mov	r1, #4, 0
    8120:	e3a00013 	mov	r0, #19, 0
    8124:	eb001569 	bl	d6d0 <gpio_set_function>
    8128:	e3a01004 	mov	r1, #4, 0
    812c:	e3a00015 	mov	r0, #21, 0
    8130:	eb001566 	bl	d6d0 <gpio_set_function>
    8134:	eb00148a 	bl	d364 <dev_barrier>
    8138:	e59f40a0 	ldr	r4, [pc, #160]	; 81e0 <i2s_speaker_init+0xd8>
    813c:	e5940000 	ldr	r0, [r4]
    8140:	e3a0145a 	mov	r1, #1509949440	; 0x5a000000
    8144:	e2800098 	add	r0, r0, #152, 0	; 0x98
    8148:	ebffffb5 	bl	8024 <PUT32>
    814c:	e3a0000a 	mov	r0, #10, 0
    8150:	eb0014b5 	bl	d42c <delay_us>
    8154:	e5940000 	ldr	r0, [r4]
    8158:	e59f1084 	ldr	r1, [pc, #132]	; 81e4 <i2s_speaker_init+0xdc>
    815c:	e2800098 	add	r0, r0, #152, 0	; 0x98
    8160:	ebffffaf 	bl	8024 <PUT32>
    8164:	e5940000 	ldr	r0, [r4]
    8168:	e59f1078 	ldr	r1, [pc, #120]	; 81e8 <i2s_speaker_init+0xe0>
    816c:	e280009c 	add	r0, r0, #156, 0	; 0x9c
    8170:	ebffffab 	bl	8024 <PUT32>
    8174:	e5940000 	ldr	r0, [r4]
    8178:	e2800098 	add	r0, r0, #152, 0	; 0x98
    817c:	ebffffaa 	bl	802c <GET32>
    8180:	e5943000 	ldr	r3, [r4]
    8184:	e380145a 	orr	r1, r0, #1509949440	; 0x5a000000
    8188:	e3811010 	orr	r1, r1, #16, 0
    818c:	e2830098 	add	r0, r3, #152, 0	; 0x98
    8190:	ebffffa3 	bl	8024 <PUT32>
    8194:	eb001472 	bl	d364 <dev_barrier>
    8198:	e3a01000 	mov	r1, #0, 0
    819c:	e5940004 	ldr	r0, [r4, #4]
    81a0:	ebffff9f 	bl	8024 <PUT32>
    81a4:	e3a00064 	mov	r0, #100, 0	; 0x64
    81a8:	eb00149f 	bl	d42c <delay_us>
    81ac:	e5940004 	ldr	r0, [r4, #4]
    81b0:	e59f1034 	ldr	r1, [pc, #52]	; 81ec <i2s_speaker_init+0xe4>
    81b4:	e2800008 	add	r0, r0, #8, 0
    81b8:	ebffff99 	bl	8024 <PUT32>
    81bc:	e5940004 	ldr	r0, [r4, #4]
    81c0:	e59f1028 	ldr	r1, [pc, #40]	; 81f0 <i2s_speaker_init+0xe8>
    81c4:	e2800010 	add	r0, r0, #16, 0
    81c8:	ebffff95 	bl	8024 <PUT32>
    81cc:	e59f1020 	ldr	r1, [pc, #32]	; 81f4 <i2s_speaker_init+0xec>
    81d0:	e5940004 	ldr	r0, [r4, #4]
    81d4:	ebffff92 	bl	8024 <PUT32>
    81d8:	eb001461 	bl	d364 <dev_barrier>
    81dc:	e8bd8010 	pop	{r4, pc}
    81e0:	00010030 	.word	0x00010030
    81e4:	5a000601 	.word	0x5a000601
    81e8:	5a006cd8 	.word	0x5a006cd8
    81ec:	0050fc20 	.word	0x0050fc20
    81f0:	40080000 	.word	0x40080000
    81f4:	0300000d 	.word	0x0300000d

000081f8 <i2s_mic_init>:
    81f8:	e92d4010 	push	{r4, lr}
    81fc:	eb001458 	bl	d364 <dev_barrier>
    8200:	e3a01004 	mov	r1, #4, 0
    8204:	e3a00012 	mov	r0, #18, 0
    8208:	eb001530 	bl	d6d0 <gpio_set_function>
    820c:	e3a01004 	mov	r1, #4, 0
    8210:	e3a00013 	mov	r0, #19, 0
    8214:	eb00152d 	bl	d6d0 <gpio_set_function>
    8218:	e3a01004 	mov	r1, #4, 0
    821c:	e3a00014 	mov	r0, #20, 0
    8220:	eb00152a 	bl	d6d0 <gpio_set_function>
    8224:	eb00144e 	bl	d364 <dev_barrier>
    8228:	e59f4074 	ldr	r4, [pc, #116]	; 82a4 <i2s_mic_init+0xac>
    822c:	e5940000 	ldr	r0, [r4]
    8230:	e59f1070 	ldr	r1, [pc, #112]	; 82a8 <i2s_mic_init+0xb0>
    8234:	e2800098 	add	r0, r0, #152, 0	; 0x98
    8238:	ebffff79 	bl	8024 <PUT32>
    823c:	e5940000 	ldr	r0, [r4]
    8240:	e59f1064 	ldr	r1, [pc, #100]	; 82ac <i2s_mic_init+0xb4>
    8244:	e280009c 	add	r0, r0, #156, 0	; 0x9c
    8248:	ebffff75 	bl	8024 <PUT32>
    824c:	e5940000 	ldr	r0, [r4]
    8250:	e2800098 	add	r0, r0, #152, 0	; 0x98
    8254:	ebffff74 	bl	802c <GET32>
    8258:	e5943000 	ldr	r3, [r4]
    825c:	e380145a 	orr	r1, r0, #1509949440	; 0x5a000000
    8260:	e3811010 	orr	r1, r1, #16, 0
    8264:	e2830098 	add	r0, r3, #152, 0	; 0x98
    8268:	ebffff6d 	bl	8024 <PUT32>
    826c:	eb00143c 	bl	d364 <dev_barrier>
    8270:	e5940004 	ldr	r0, [r4, #4]
    8274:	e59f1034 	ldr	r1, [pc, #52]	; 82b0 <i2s_mic_init+0xb8>
    8278:	e2800008 	add	r0, r0, #8, 0
    827c:	ebffff68 	bl	8024 <PUT32>
    8280:	e5940004 	ldr	r0, [r4, #4]
    8284:	e59f1028 	ldr	r1, [pc, #40]	; 82b4 <i2s_mic_init+0xbc>
    8288:	e2800010 	add	r0, r0, #16, 0
    828c:	ebffff64 	bl	8024 <PUT32>
    8290:	e59f1020 	ldr	r1, [pc, #32]	; 82b8 <i2s_mic_init+0xc0>
    8294:	e5940004 	ldr	r0, [r4, #4]
    8298:	ebffff61 	bl	8024 <PUT32>
    829c:	eb001430 	bl	d364 <dev_barrier>
    82a0:	e8bd8010 	pop	{r4, pc}
    82a4:	00010030 	.word	0x00010030
    82a8:	5a000601 	.word	0x5a000601
    82ac:	5a006cd8 	.word	0x5a006cd8
    82b0:	0000fc20 	.word	0x0000fc20
    82b4:	c0080000 	.word	0xc0080000
    82b8:	03000013 	.word	0x03000013

000082bc <i2s_read_sample>:
    82bc:	e92d4010 	push	{r4, lr}
    82c0:	eb001427 	bl	d364 <dev_barrier>
    82c4:	e59f301c 	ldr	r3, [pc, #28]	; 82e8 <i2s_read_sample+0x2c>
    82c8:	e5933004 	ldr	r3, [r3, #4]
    82cc:	e5933000 	ldr	r3, [r3]
    82d0:	e3130601 	tst	r3, #1048576	; 0x100000
    82d4:	0afffffa 	beq	82c4 <i2s_read_sample+0x8>
    82d8:	e59f3008 	ldr	r3, [pc, #8]	; 82e8 <i2s_read_sample+0x2c>
    82dc:	e5933004 	ldr	r3, [r3, #4]
    82e0:	e5930004 	ldr	r0, [r3, #4]
    82e4:	e8bd8010 	pop	{r4, pc}
    82e8:	00010030 	.word	0x00010030

000082ec <i2s_write_sample>:
    82ec:	e92d4010 	push	{r4, lr}
    82f0:	e1a04000 	mov	r4, r0
    82f4:	eb00141a 	bl	d364 <dev_barrier>
    82f8:	e59f3018 	ldr	r3, [pc, #24]	; 8318 <i2s_write_sample+0x2c>
    82fc:	e5933004 	ldr	r3, [r3, #4]
    8300:	e5932000 	ldr	r2, [r3]
    8304:	e3120702 	tst	r2, #524288	; 0x80000
    8308:	0afffffa 	beq	82f8 <i2s_write_sample+0xc>
    830c:	e5834004 	str	r4, [r3, #4]
    8310:	eb001413 	bl	d364 <dev_barrier>
    8314:	e8bd8010 	pop	{r4, pc}
    8318:	00010030 	.word	0x00010030

0000831c <fft_fixed_cfft>:
    831c:	e92d4ff0 	push	{r4, r5, r6, r7, r8, r9, sl, fp, lr}
    8320:	e24dd024 	sub	sp, sp, #36, 0	; 0x24
    8324:	e58d301c 	str	r3, [sp, #28]
    8328:	e3a03001 	mov	r3, #1, 0
    832c:	e1a0a213 	lsl	sl, r3, r2
    8330:	e35a0b01 	cmp	sl, #1024	; 0x400
    8334:	8a000004 	bhi	834c <fft_fixed_cfft+0x30>
    8338:	e1a09000 	mov	r9, r0
    833c:	e1a0b001 	mov	fp, r1
    8340:	e3a0e001 	mov	lr, #1, 0
    8344:	e3a02000 	mov	r2, #0, 0
    8348:	ea000006 	b	8368 <fft_fixed_cfft+0x4c>
    834c:	e3a0300f 	mov	r3, #15, 0
    8350:	e59f2268 	ldr	r2, [pc, #616]	; 85c0 <fft_fixed_cfft+0x2a4>
    8354:	e59f1268 	ldr	r1, [pc, #616]	; 85c4 <fft_fixed_cfft+0x2a8>
    8358:	e59f0268 	ldr	r0, [pc, #616]	; 85c8 <fft_fixed_cfft+0x2ac>
    835c:	eb00129c 	bl	cdd4 <printk>
    8360:	eb0013cb 	bl	d294 <clean_reboot>
    8364:	e28ee001 	add	lr, lr, #1, 0
    8368:	e15e000a 	cmp	lr, sl
    836c:	2a000017 	bcs	83d0 <fft_fixed_cfft+0xb4>
    8370:	e1a0300a 	mov	r3, sl
    8374:	e1a030a3 	lsr	r3, r3, #1
    8378:	e1a01002 	mov	r1, r2
    837c:	e082c003 	add	ip, r2, r3
    8380:	e24a0001 	sub	r0, sl, #1, 0
    8384:	e15c0000 	cmp	ip, r0
    8388:	8afffff9 	bhi	8374 <fft_fixed_cfft+0x58>
    838c:	e2432001 	sub	r2, r3, #1, 0
    8390:	e0011002 	and	r1, r1, r2
    8394:	e0813003 	add	r3, r1, r3
    8398:	e1a02003 	mov	r2, r3
    839c:	e153000e 	cmp	r3, lr
    83a0:	9affffef 	bls	8364 <fft_fixed_cfft+0x48>
    83a4:	e1a0108e 	lsl	r1, lr, #1
    83a8:	e19900f1 	ldrsh	r0, [r9, r1]
    83ac:	e1a03083 	lsl	r3, r3, #1
    83b0:	e199c0f3 	ldrsh	ip, [r9, r3]
    83b4:	e189c0b1 	strh	ip, [r9, r1]
    83b8:	e18900b3 	strh	r0, [r9, r3]
    83bc:	e19b00f1 	ldrsh	r0, [fp, r1]
    83c0:	e19bc0f3 	ldrsh	ip, [fp, r3]
    83c4:	e18bc0b1 	strh	ip, [fp, r1]
    83c8:	e18b00b3 	strh	r0, [fp, r3]
    83cc:	eaffffe4 	b	8364 <fft_fixed_cfft+0x48>
    83d0:	e3a03009 	mov	r3, #9, 0
    83d4:	e58d3018 	str	r3, [sp, #24]
    83d8:	e3a03001 	mov	r3, #1, 0
    83dc:	e58d3008 	str	r3, [sp, #8]
    83e0:	ea000065 	b	857c <fft_fixed_cfft+0x260>
    83e4:	e2833001 	add	r3, r3, #1, 0
    83e8:	e153000a 	cmp	r3, sl
    83ec:	3afffffc 	bcc	83e4 <fft_fixed_cfft+0xc8>
    83f0:	e3a03000 	mov	r3, #0, 0
    83f4:	e58d300c 	str	r3, [sp, #12]
    83f8:	ea000067 	b	859c <fft_fixed_cfft+0x280>
    83fc:	e3a03000 	mov	r3, #0, 0
    8400:	eafffff8 	b	83e8 <fft_fixed_cfft+0xcc>
    8404:	e6ffc07c 	uxth	ip, ip
    8408:	e0422001 	sub	r2, r2, r1
    840c:	e08c2002 	add	r2, ip, r2
    8410:	e18920be 	strh	r2, [r9, lr]
    8414:	e6ff0070 	uxth	r0, r0
    8418:	e0402003 	sub	r2, r0, r3
    841c:	e18b20be 	strh	r2, [fp, lr]
    8420:	e084c00c 	add	ip, r4, ip
    8424:	e189c0b6 	strh	ip, [r9, r6]
    8428:	e0830000 	add	r0, r3, r0
    842c:	e18b00b6 	strh	r0, [fp, r6]
    8430:	e59d3010 	ldr	r3, [sp, #16]
    8434:	e0855003 	add	r5, r5, r3
    8438:	e59d3004 	ldr	r3, [sp, #4]
    843c:	e1550003 	cmp	r5, r3
    8440:	2a000025 	bcs	84dc <fft_fixed_cfft+0x1c0>
    8444:	e59d3008 	ldr	r3, [sp, #8]
    8448:	e083e005 	add	lr, r3, r5
    844c:	e1a0e08e 	lsl	lr, lr, #1
    8450:	e19930fe 	ldrsh	r3, [r9, lr]
    8454:	e1620388 	smulbb	r2, r8, r3
    8458:	e1a01742 	asr	r1, r2, #14
    845c:	e2011001 	and	r1, r1, #1, 0
    8460:	e08117c2 	add	r1, r1, r2, asr #15
    8464:	e6ff1071 	uxth	r1, r1
    8468:	e19b00fe 	ldrsh	r0, [fp, lr]
    846c:	e16c0087 	smulbb	ip, r7, r0
    8470:	e1a0274c 	asr	r2, ip, #14
    8474:	e2022001 	and	r2, r2, #1, 0
    8478:	e08227cc 	add	r2, r2, ip, asr #15
    847c:	e6ff2072 	uxth	r2, r2
    8480:	e0414002 	sub	r4, r1, r2
    8484:	e6ff4074 	uxth	r4, r4
    8488:	e1600088 	smulbb	r0, r8, r0
    848c:	e1a0c740 	asr	ip, r0, #14
    8490:	e20cc001 	and	ip, ip, #1, 0
    8494:	e08cc7c0 	add	ip, ip, r0, asr #15
    8498:	e6ffc07c 	uxth	ip, ip
    849c:	e1630387 	smulbb	r3, r7, r3
    84a0:	e1a00743 	asr	r0, r3, #14
    84a4:	e2000001 	and	r0, r0, #1, 0
    84a8:	e08037c3 	add	r3, r0, r3, asr #15
    84ac:	e6fc3073 	uxtah	r3, ip, r3
    84b0:	e6ff3073 	uxth	r3, r3
    84b4:	e1a06085 	lsl	r6, r5, #1
    84b8:	e199c0f6 	ldrsh	ip, [r9, r6]
    84bc:	e19b00f6 	ldrsh	r0, [fp, r6]
    84c0:	e59da00c 	ldr	sl, [sp, #12]
    84c4:	e35a0000 	cmp	sl, #0, 0
    84c8:	108ccfac 	addne	ip, ip, ip, lsr #31
    84cc:	11a0c0cc 	asrne	ip, ip, #1
    84d0:	10800fa0 	addne	r0, r0, r0, lsr #31
    84d4:	11a000c0 	asrne	r0, r0, #1
    84d8:	eaffffc9 	b	8404 <fft_fixed_cfft+0xe8>
    84dc:	e1a0a003 	mov	sl, r3
    84e0:	e59d3014 	ldr	r3, [sp, #20]
    84e4:	e2833001 	add	r3, r3, #1, 0
    84e8:	e58d3014 	str	r3, [sp, #20]
    84ec:	e59d3008 	ldr	r3, [sp, #8]
    84f0:	e59d2014 	ldr	r2, [sp, #20]
    84f4:	e1530002 	cmp	r3, r2
    84f8:	9a000019 	bls	8564 <fft_fixed_cfft+0x248>
    84fc:	e59d3014 	ldr	r3, [sp, #20]
    8500:	e59d2018 	ldr	r2, [sp, #24]
    8504:	e1a03213 	lsl	r3, r3, r2
    8508:	e2832c01 	add	r2, r3, #256	; 0x100
    850c:	e59f10b8 	ldr	r1, [pc, #184]	; 85cc <fft_fixed_cfft+0x2b0>
    8510:	e1a02082 	lsl	r2, r2, #1
    8514:	e19180f2 	ldrsh	r8, [r1, r2]
    8518:	e1a03083 	lsl	r3, r3, #1
    851c:	e19170f3 	ldrsh	r7, [r1, r3]
    8520:	e6ff3077 	uxth	r3, r7
    8524:	e2633000 	rsb	r3, r3, #0, 0
    8528:	e6bf3073 	sxth	r3, r3
    852c:	e59d201c 	ldr	r2, [sp, #28]
    8530:	e3520000 	cmp	r2, #0, 0
    8534:	01a07003 	moveq	r7, r3
    8538:	e59d300c 	ldr	r3, [sp, #12]
    853c:	e3530000 	cmp	r3, #0, 0
    8540:	0a000004 	beq	8558 <fft_fixed_cfft+0x23c>
    8544:	e0888fa8 	add	r8, r8, r8, lsr #31
    8548:	e1a080c8 	asr	r8, r8, #1
    854c:	e0877fa7 	add	r7, r7, r7, lsr #31
    8550:	e1a070c7 	asr	r7, r7, #1
    8554:	e6bf7077 	sxth	r7, r7
    8558:	e59d5014 	ldr	r5, [sp, #20]
    855c:	e58da004 	str	sl, [sp, #4]
    8560:	eaffffb4 	b	8438 <fft_fixed_cfft+0x11c>
    8564:	e59d3018 	ldr	r3, [sp, #24]
    8568:	e2433001 	sub	r3, r3, #1, 0
    856c:	e6bf3073 	sxth	r3, r3
    8570:	e58d3018 	str	r3, [sp, #24]
    8574:	e59d3010 	ldr	r3, [sp, #16]
    8578:	e58d3008 	str	r3, [sp, #8]
    857c:	e59d3008 	ldr	r3, [sp, #8]
    8580:	e153000a 	cmp	r3, sl
    8584:	2a00000a 	bcs	85b4 <fft_fixed_cfft+0x298>
    8588:	e59d301c 	ldr	r3, [sp, #28]
    858c:	e3530000 	cmp	r3, #0, 0
    8590:	1affff99 	bne	83fc <fft_fixed_cfft+0xe0>
    8594:	e3a03001 	mov	r3, #1, 0
    8598:	e58d300c 	str	r3, [sp, #12]
    859c:	e59d3008 	ldr	r3, [sp, #8]
    85a0:	e1a03083 	lsl	r3, r3, #1
    85a4:	e58d3010 	str	r3, [sp, #16]
    85a8:	e3a03000 	mov	r3, #0, 0
    85ac:	e58d3014 	str	r3, [sp, #20]
    85b0:	eaffffcd 	b	84ec <fft_fixed_cfft+0x1d0>
    85b4:	e3a00000 	mov	r0, #0, 0
    85b8:	e28dd024 	add	sp, sp, #36, 0	; 0x24
    85bc:	e8bd8ff0 	pop	{r4, r5, r6, r7, r8, r9, sl, fp, pc}
    85c0:	0000dcdc 	.word	0x0000dcdc
    85c4:	0000dc74 	.word	0x0000dc74
    85c8:	0000dc7c 	.word	0x0000dc7c
    85cc:	00010038 	.word	0x00010038

000085d0 <fft_fixed_rfft>:
    85d0:	e92d4010 	push	{r4, lr}
    85d4:	e3a0306a 	mov	r3, #106, 0	; 0x6a
    85d8:	e59f200c 	ldr	r2, [pc, #12]	; 85ec <fft_fixed_rfft+0x1c>
    85dc:	e59f100c 	ldr	r1, [pc, #12]	; 85f0 <fft_fixed_rfft+0x20>
    85e0:	e59f000c 	ldr	r0, [pc, #12]	; 85f4 <fft_fixed_rfft+0x24>
    85e4:	eb0011fa 	bl	cdd4 <printk>
    85e8:	eb001329 	bl	d294 <clean_reboot>
    85ec:	0000dcec 	.word	0x0000dcec
    85f0:	0000dc74 	.word	0x0000dc74
    85f4:	0000dcac 	.word	0x0000dcac

000085f8 <pi_sd_trace>:
    85f8:	e59f3004 	ldr	r3, [pc, #4]	; 8604 <pi_sd_trace+0xc>
    85fc:	e5830000 	str	r0, [r3]
    8600:	e12fff1e 	bx	lr
    8604:	000106b4 	.word	0x000106b4

00008608 <pi_sd_init>:
    8608:	e92d4010 	push	{r4, lr}
    860c:	eb000454 	bl	9764 <emmc_init>
    8610:	e3500000 	cmp	r0, #0, 0
    8614:	0a000003 	beq	8628 <pi_sd_init+0x20>
    8618:	e3a00001 	mov	r0, #1, 0
    861c:	e59f301c 	ldr	r3, [pc, #28]	; 8640 <pi_sd_init+0x38>
    8620:	e5830004 	str	r0, [r3, #4]
    8624:	e8bd8010 	pop	{r4, pc}
    8628:	e3a0301d 	mov	r3, #29, 0
    862c:	e59f2010 	ldr	r2, [pc, #16]	; 8644 <pi_sd_init+0x3c>
    8630:	e59f1010 	ldr	r1, [pc, #16]	; 8648 <pi_sd_init+0x40>
    8634:	e59f0010 	ldr	r0, [pc, #16]	; 864c <pi_sd_init+0x44>
    8638:	eb0011e5 	bl	cdd4 <printk>
    863c:	eb001314 	bl	d294 <clean_reboot>
    8640:	000106b4 	.word	0x000106b4
    8644:	0000de74 	.word	0x0000de74
    8648:	0000dcfc 	.word	0x0000dcfc
    864c:	0000dd10 	.word	0x0000dd10

00008650 <pi_sd_read>:
    8650:	e92d4070 	push	{r4, r5, r6, lr}
    8654:	e24dd008 	sub	sp, sp, #8, 0
    8658:	e59f3118 	ldr	r3, [pc, #280]	; 8778 <pi_sd_read+0x128>
    865c:	e5933004 	ldr	r3, [r3, #4]
    8660:	e3530000 	cmp	r3, #0, 0
    8664:	0a00000f 	beq	86a8 <pi_sd_read+0x58>
    8668:	e1a06000 	mov	r6, r0
    866c:	e1a05001 	mov	r5, r1
    8670:	e1a04482 	lsl	r4, r2, #9
    8674:	e1a02004 	mov	r2, r4
    8678:	e1a01000 	mov	r1, r0
    867c:	e1a00005 	mov	r0, r5
    8680:	eb0003f1 	bl	964c <emmc_read>
    8684:	e1500004 	cmp	r0, r4
    8688:	1a00000e 	bne	86c8 <pi_sd_read+0x78>
    868c:	e59f30e4 	ldr	r3, [pc, #228]	; 8778 <pi_sd_read+0x128>
    8690:	e5933000 	ldr	r3, [r3]
    8694:	e3530000 	cmp	r3, #0, 0
    8698:	1a000011 	bne	86e4 <pi_sd_read+0x94>
    869c:	e3a00001 	mov	r0, #1, 0
    86a0:	e28dd008 	add	sp, sp, #8, 0
    86a4:	e8bd8070 	pop	{r4, r5, r6, pc}
    86a8:	e59f30cc 	ldr	r3, [pc, #204]	; 877c <pi_sd_read+0x12c>
    86ac:	e58d3000 	str	r3, [sp]
    86b0:	e3a03023 	mov	r3, #35, 0	; 0x23
    86b4:	e59f20c4 	ldr	r2, [pc, #196]	; 8780 <pi_sd_read+0x130>
    86b8:	e59f10c4 	ldr	r1, [pc, #196]	; 8784 <pi_sd_read+0x134>
    86bc:	e59f00c4 	ldr	r0, [pc, #196]	; 8788 <pi_sd_read+0x138>
    86c0:	eb0011c3 	bl	cdd4 <printk>
    86c4:	eb0012f2 	bl	d294 <clean_reboot>
    86c8:	e58d0000 	str	r0, [sp]
    86cc:	e3a03026 	mov	r3, #38, 0	; 0x26
    86d0:	e59f20a8 	ldr	r2, [pc, #168]	; 8780 <pi_sd_read+0x130>
    86d4:	e59f10a8 	ldr	r1, [pc, #168]	; 8784 <pi_sd_read+0x134>
    86d8:	e59f00ac 	ldr	r0, [pc, #172]	; 878c <pi_sd_read+0x13c>
    86dc:	eb0011bc 	bl	cdd4 <printk>
    86e0:	eb0012eb 	bl	d294 <clean_reboot>
    86e4:	e59f1094 	ldr	r1, [pc, #148]	; 8780 <pi_sd_read+0x130>
    86e8:	e59f00a0 	ldr	r0, [pc, #160]	; 8790 <pi_sd_read+0x140>
    86ec:	eb0011b8 	bl	cdd4 <printk>
    86f0:	e16f3f16 	clz	r3, r6
    86f4:	e1a032a3 	lsr	r3, r3, #5
    86f8:	e3540000 	cmp	r4, #0, 0
    86fc:	03a03001 	moveq	r3, #1, 0
    8700:	e3530000 	cmp	r3, #0, 0
    8704:	1a000019 	bne	8770 <pi_sd_read+0x120>
    8708:	e1a03124 	lsr	r3, r4, #2
    870c:	e3530000 	cmp	r3, #0, 0
    8710:	0a00000c 	beq	8748 <pi_sd_read+0xf8>
    8714:	e5d61001 	ldrb	r1, [r6, #1]
    8718:	e5d62000 	ldrb	r2, [r6]
    871c:	e1822401 	orr	r2, r2, r1, lsl #8
    8720:	e0822004 	add	r2, r2, r4
    8724:	e5d61003 	ldrb	r1, [r6, #3]
    8728:	e5d64002 	ldrb	r4, [r6, #2]
    872c:	e1844401 	orr	r4, r4, r1, lsl #8
    8730:	e0224584 	eor	r4, r2, r4, lsl #11
    8734:	e0244802 	eor	r4, r4, r2, lsl #16
    8738:	e2866004 	add	r6, r6, #4, 0
    873c:	e08445a4 	add	r4, r4, r4, lsr #11
    8740:	e2433001 	sub	r3, r3, #1, 0
    8744:	eafffff0 	b	870c <pi_sd_read+0xbc>
    8748:	e0242184 	eor	r2, r4, r4, lsl #3
    874c:	e08222a2 	add	r2, r2, r2, lsr #5
    8750:	e0222202 	eor	r2, r2, r2, lsl #4
    8754:	e08228a2 	add	r2, r2, r2, lsr #17
    8758:	e0222c82 	eor	r2, r2, r2, lsl #25
    875c:	e0822322 	add	r2, r2, r2, lsr #6
    8760:	e1a01005 	mov	r1, r5
    8764:	e59f0028 	ldr	r0, [pc, #40]	; 8794 <pi_sd_read+0x144>
    8768:	eb001199 	bl	cdd4 <printk>
    876c:	eaffffca 	b	869c <pi_sd_read+0x4c>
    8770:	e3a02000 	mov	r2, #0, 0
    8774:	eafffff9 	b	8760 <pi_sd_read+0x110>
    8778:	000106b4 	.word	0x000106b4
    877c:	0000dd78 	.word	0x0000dd78
    8780:	0000de80 	.word	0x0000de80
    8784:	0000dcfc 	.word	0x0000dcfc
    8788:	0000dd30 	.word	0x0000dd30
    878c:	0000dd80 	.word	0x0000dd80
    8790:	0000ddbc 	.word	0x0000ddbc
    8794:	0000ddc8 	.word	0x0000ddc8

00008798 <pi_sec_read>:
    8798:	e92d4070 	push	{r4, r5, r6, lr}
    879c:	e24dd008 	sub	sp, sp, #8, 0
    87a0:	e59f3074 	ldr	r3, [pc, #116]	; 881c <pi_sec_read+0x84>
    87a4:	e5933004 	ldr	r3, [r3, #4]
    87a8:	e3530000 	cmp	r3, #0, 0
    87ac:	0a00000c 	beq	87e4 <pi_sec_read+0x4c>
    87b0:	e1a05000 	mov	r5, r0
    87b4:	e1a04001 	mov	r4, r1
    87b8:	e1a00481 	lsl	r0, r1, #9
    87bc:	eb001491 	bl	da08 <kmalloc>
    87c0:	e1a06000 	mov	r6, r0
    87c4:	e1a02004 	mov	r2, r4
    87c8:	e1a01005 	mov	r1, r5
    87cc:	ebffff9f 	bl	8650 <pi_sd_read>
    87d0:	e3500000 	cmp	r0, #0, 0
    87d4:	0a00000a 	beq	8804 <pi_sec_read+0x6c>
    87d8:	e1a00006 	mov	r0, r6
    87dc:	e28dd008 	add	sp, sp, #8, 0
    87e0:	e8bd8070 	pop	{r4, r5, r6, pc}
    87e4:	e59f3034 	ldr	r3, [pc, #52]	; 8820 <pi_sec_read+0x88>
    87e8:	e58d3000 	str	r3, [sp]
    87ec:	e3a03030 	mov	r3, #48, 0	; 0x30
    87f0:	e59f202c 	ldr	r2, [pc, #44]	; 8824 <pi_sec_read+0x8c>
    87f4:	e59f102c 	ldr	r1, [pc, #44]	; 8828 <pi_sec_read+0x90>
    87f8:	e59f002c 	ldr	r0, [pc, #44]	; 882c <pi_sec_read+0x94>
    87fc:	eb001174 	bl	cdd4 <printk>
    8800:	eb0012a3 	bl	d294 <clean_reboot>
    8804:	e3a03034 	mov	r3, #52, 0	; 0x34
    8808:	e59f2014 	ldr	r2, [pc, #20]	; 8824 <pi_sec_read+0x8c>
    880c:	e59f1014 	ldr	r1, [pc, #20]	; 8828 <pi_sec_read+0x90>
    8810:	e59f0018 	ldr	r0, [pc, #24]	; 8830 <pi_sec_read+0x98>
    8814:	eb00116e 	bl	cdd4 <printk>
    8818:	eb00129d 	bl	d294 <clean_reboot>
    881c:	000106b4 	.word	0x000106b4
    8820:	0000dd78 	.word	0x0000dd78
    8824:	0000de8c 	.word	0x0000de8c
    8828:	0000dcfc 	.word	0x0000dcfc
    882c:	0000dd30 	.word	0x0000dd30
    8830:	0000dde8 	.word	0x0000dde8

00008834 <pi_sd_write>:
    8834:	e92d4070 	push	{r4, r5, r6, lr}
    8838:	e24dd008 	sub	sp, sp, #8, 0
    883c:	e59f30b0 	ldr	r3, [pc, #176]	; 88f4 <pi_sd_write+0xc0>
    8840:	e5933004 	ldr	r3, [r3, #4]
    8844:	e3530000 	cmp	r3, #0, 0
    8848:	0a00000f 	beq	888c <pi_sd_write+0x58>
    884c:	e1a06000 	mov	r6, r0
    8850:	e1a05001 	mov	r5, r1
    8854:	e1a04482 	lsl	r4, r2, #9
    8858:	e1a02004 	mov	r2, r4
    885c:	e1a01000 	mov	r1, r0
    8860:	e1a00005 	mov	r0, r5
    8864:	eb00039c 	bl	96dc <emmc_write>
    8868:	e1500004 	cmp	r0, r4
    886c:	1a00000e 	bne	88ac <pi_sd_write+0x78>
    8870:	e59f307c 	ldr	r3, [pc, #124]	; 88f4 <pi_sd_write+0xc0>
    8874:	e5933000 	ldr	r3, [r3]
    8878:	e3530000 	cmp	r3, #0, 0
    887c:	1a000011 	bne	88c8 <pi_sd_write+0x94>
    8880:	e3a00001 	mov	r0, #1, 0
    8884:	e28dd008 	add	sp, sp, #8, 0
    8888:	e8bd8070 	pop	{r4, r5, r6, pc}
    888c:	e59f3064 	ldr	r3, [pc, #100]	; 88f8 <pi_sd_write+0xc4>
    8890:	e58d3000 	str	r3, [sp]
    8894:	e3a0303b 	mov	r3, #59, 0	; 0x3b
    8898:	e59f205c 	ldr	r2, [pc, #92]	; 88fc <pi_sd_write+0xc8>
    889c:	e59f105c 	ldr	r1, [pc, #92]	; 8900 <pi_sd_write+0xcc>
    88a0:	e59f005c 	ldr	r0, [pc, #92]	; 8904 <pi_sd_write+0xd0>
    88a4:	eb00114a 	bl	cdd4 <printk>
    88a8:	eb001279 	bl	d294 <clean_reboot>
    88ac:	e58d0000 	str	r0, [sp]
    88b0:	e3a0303e 	mov	r3, #62, 0	; 0x3e
    88b4:	e59f2040 	ldr	r2, [pc, #64]	; 88fc <pi_sd_write+0xc8>
    88b8:	e59f1040 	ldr	r1, [pc, #64]	; 8900 <pi_sd_write+0xcc>
    88bc:	e59f0044 	ldr	r0, [pc, #68]	; 8908 <pi_sd_write+0xd4>
    88c0:	eb001143 	bl	cdd4 <printk>
    88c4:	eb001272 	bl	d294 <clean_reboot>
    88c8:	e59f102c 	ldr	r1, [pc, #44]	; 88fc <pi_sd_write+0xc8>
    88cc:	e59f0038 	ldr	r0, [pc, #56]	; 890c <pi_sd_write+0xd8>
    88d0:	eb00113f 	bl	cdd4 <printk>
    88d4:	e1a01004 	mov	r1, r4
    88d8:	e1a00006 	mov	r0, r6
    88dc:	eb0010cc 	bl	cc14 <our_crc32>
    88e0:	e1a02000 	mov	r2, r0
    88e4:	e1a01005 	mov	r1, r5
    88e8:	e59f0020 	ldr	r0, [pc, #32]	; 8910 <pi_sd_write+0xdc>
    88ec:	eb001138 	bl	cdd4 <printk>
    88f0:	eaffffe2 	b	8880 <pi_sd_write+0x4c>
    88f4:	000106b4 	.word	0x000106b4
    88f8:	0000dd78 	.word	0x0000dd78
    88fc:	0000de98 	.word	0x0000de98
    8900:	0000dcfc 	.word	0x0000dcfc
    8904:	0000dd30 	.word	0x0000dd30
    8908:	0000de18 	.word	0x0000de18
    890c:	0000ddbc 	.word	0x0000ddbc
    8910:	0000de54 	.word	0x0000de54

00008914 <get_clock_divider>:
    8914:	e59f30ac 	ldr	r3, [pc, #172]	; 89c8 <get_clock_divider+0xb4>
    8918:	e1500003 	cmp	r0, r3
    891c:	9a000007 	bls	8940 <get_clock_divider+0x2c>
    8920:	e59f20a4 	ldr	r2, [pc, #164]	; 89cc <get_clock_divider+0xb8>
    8924:	e0823092 	umull	r3, r2, r2, r0
    8928:	e1a02c22 	lsr	r2, r2, #24
    892c:	e59f309c 	ldr	r3, [pc, #156]	; 89d0 <get_clock_divider+0xbc>
    8930:	e0030293 	mul	r3, r3, r2
    8934:	e1500003 	cmp	r0, r3
    8938:	13a02000 	movne	r2, #0, 0
    893c:	ea000000 	b	8944 <get_clock_divider+0x30>
    8940:	e3a02001 	mov	r2, #1, 0
    8944:	e3a0001f 	mov	r0, #31, 0
    8948:	e3500000 	cmp	r0, #0, 0
    894c:	ba000007 	blt	8970 <get_clock_divider+0x5c>
    8950:	e3a03001 	mov	r3, #1, 0
    8954:	e1a03013 	lsl	r3, r3, r0
    8958:	e1120003 	tst	r2, r3
    895c:	02400001 	subeq	r0, r0, #1, 0
    8960:	0afffff8 	beq	8948 <get_clock_divider+0x34>
    8964:	e1d23003 	bics	r3, r2, r3
    8968:	12800001 	addne	r0, r0, #1, 0
    896c:	ea000000 	b	8974 <get_clock_divider+0x60>
    8970:	e3e00000 	mvn	r0, #0, 0
    8974:	e3700001 	cmn	r0, #1, 0
    8978:	0a000003 	beq	898c <get_clock_divider+0x78>
    897c:	e350001f 	cmp	r0, #31, 0
    8980:	da000002 	ble	8990 <get_clock_divider+0x7c>
    8984:	e3a0001f 	mov	r0, #31, 0
    8988:	ea000002 	b	8998 <get_clock_divider+0x84>
    898c:	e3a0001f 	mov	r0, #31, 0
    8990:	e3500000 	cmp	r0, #0, 0
    8994:	0a000002 	beq	89a4 <get_clock_divider+0x90>
    8998:	e2400001 	sub	r0, r0, #1, 0
    899c:	e3a03001 	mov	r3, #1, 0
    89a0:	e1a00013 	lsl	r0, r3, r0
    89a4:	e3500b01 	cmp	r0, #1024	; 0x400
    89a8:	a59f0024 	ldrge	r0, [pc, #36]	; 89d4 <get_clock_divider+0xc0>
    89ac:	e1a03440 	asr	r3, r0, #8
    89b0:	e1a00400 	lsl	r0, r0, #8
    89b4:	e6ff0070 	uxth	r0, r0
    89b8:	e1a03303 	lsl	r3, r3, #6
    89bc:	e6ef3073 	uxtb	r3, r3
    89c0:	e1800003 	orr	r0, r0, r3
    89c4:	e12fff1e 	bx	lr
    89c8:	02faf07f 	.word	0x02faf07f
    89cc:	55e63b89 	.word	0x55e63b89
    89d0:	02faf080 	.word	0x02faf080
    89d4:	000003ff 	.word	0x000003ff

000089d8 <sd_error_mask>:
    89d8:	e2800010 	add	r0, r0, #16, 0
    89dc:	e3a03001 	mov	r3, #1, 0
    89e0:	e1a00013 	lsl	r0, r3, r0
    89e4:	e12fff1e 	bx	lr

000089e8 <set_last_error>:
    89e8:	e1a03820 	lsr	r3, r0, #16
    89ec:	e1a03803 	lsl	r3, r3, #16
    89f0:	e59f2008 	ldr	r2, [pc, #8]	; 8a00 <set_last_error+0x18>
    89f4:	e5823040 	str	r3, [r2, #64]	; 0x40
    89f8:	e5820044 	str	r0, [r2, #68]	; 0x44
    89fc:	e12fff1e 	bx	lr
    8a00:	000106c0 	.word	0x000106c0

00008a04 <reset_command>:
    8a04:	e92d4010 	push	{r4, lr}
    8a08:	e59f2058 	ldr	r2, [pc, #88]	; 8a68 <reset_command+0x64>
    8a0c:	e592302c 	ldr	r3, [r2, #44]	; 0x2c
    8a10:	e3833402 	orr	r3, r3, #33554432	; 0x2000000
    8a14:	e582302c 	str	r3, [r2, #44]	; 0x2c
    8a18:	e3a04000 	mov	r4, #0, 0
    8a1c:	ea000002 	b	8a2c <reset_command+0x28>
    8a20:	e3a00001 	mov	r0, #1, 0
    8a24:	eb001289 	bl	d450 <delay_ms>
    8a28:	e2844001 	add	r4, r4, #1, 0
    8a2c:	e59f3038 	ldr	r3, [pc, #56]	; 8a6c <reset_command+0x68>
    8a30:	e1540003 	cmp	r4, r3
    8a34:	ca000005 	bgt	8a50 <reset_command+0x4c>
    8a38:	e59f3028 	ldr	r3, [pc, #40]	; 8a68 <reset_command+0x64>
    8a3c:	e593302c 	ldr	r3, [r3, #44]	; 0x2c
    8a40:	e3130402 	tst	r3, #33554432	; 0x2000000
    8a44:	1afffff5 	bne	8a20 <reset_command+0x1c>
    8a48:	e3a00001 	mov	r0, #1, 0
    8a4c:	e8bd8010 	pop	{r4, pc}
    8a50:	e59f3010 	ldr	r3, [pc, #16]	; 8a68 <reset_command+0x64>
    8a54:	e593102c 	ldr	r1, [r3, #44]	; 0x2c
    8a58:	e59f0010 	ldr	r0, [pc, #16]	; 8a70 <reset_command+0x6c>
    8a5c:	eb0010dc 	bl	cdd4 <printk>
    8a60:	e3a00000 	mov	r0, #0, 0
    8a64:	e8bd8010 	pop	{r4, pc}
    8a68:	20300000 	.word	0x20300000
    8a6c:	0000270f 	.word	0x0000270f
    8a70:	0000dea4 	.word	0x0000dea4

00008a74 <wait_reg_mask>:
    8a74:	e92d41f0 	push	{r4, r5, r6, r7, r8, lr}
    8a78:	e1a07000 	mov	r7, r0
    8a7c:	e1a06001 	mov	r6, r1
    8a80:	e1a08002 	mov	r8, r2
    8a84:	e1a05003 	mov	r5, r3
    8a88:	e3a04000 	mov	r4, #0, 0
    8a8c:	ea000005 	b	8aa8 <wait_reg_mask+0x34>
    8a90:	e1a00008 	mov	r0, r8
    8a94:	e3500000 	cmp	r0, #0, 0
    8a98:	18bd81f0 	popne	{r4, r5, r6, r7, r8, pc}
    8a9c:	e3a00064 	mov	r0, #100, 0	; 0x64
    8aa0:	eb001261 	bl	d42c <delay_us>
    8aa4:	e2844001 	add	r4, r4, #1, 0
    8aa8:	e0853105 	add	r3, r5, r5, lsl #2
    8aac:	e1540083 	cmp	r4, r3, lsl #1
    8ab0:	8a000004 	bhi	8ac8 <wait_reg_mask+0x54>
    8ab4:	e5973000 	ldr	r3, [r7]
    8ab8:	e1130006 	tst	r3, r6
    8abc:	1afffff3 	bne	8a90 <wait_reg_mask+0x1c>
    8ac0:	e2280001 	eor	r0, r8, #1, 0
    8ac4:	eafffff2 	b	8a94 <wait_reg_mask+0x20>
    8ac8:	e3a00000 	mov	r0, #0, 0
    8acc:	e8bd81f0 	pop	{r4, r5, r6, r7, r8, pc}

00008ad0 <do_data_transfer>:
    8ad0:	e92d41f0 	push	{r4, r5, r6, r7, r8, lr}
    8ad4:	e24dd008 	sub	sp, sp, #8, 0
    8ad8:	e58d0004 	str	r0, [sp, #4]
    8adc:	e3100010 	tst	r0, #16, 0
    8ae0:	0a000005 	beq	8afc <do_data_transfer+0x2c>
    8ae4:	e3a07000 	mov	r7, #0, 0
    8ae8:	e3a05020 	mov	r5, #32, 0
    8aec:	e59f30c0 	ldr	r3, [pc, #192]	; 8bb4 <do_data_transfer+0xe4>
    8af0:	e5934038 	ldr	r4, [r3, #56]	; 0x38
    8af4:	e3a06000 	mov	r6, #0, 0
    8af8:	ea00000c 	b	8b30 <do_data_transfer+0x60>
    8afc:	e3a07001 	mov	r7, #1, 0
    8b00:	e3a05010 	mov	r5, #16, 0
    8b04:	eafffff8 	b	8aec <do_data_transfer+0x1c>
    8b08:	ebffffb6 	bl	89e8 <set_last_error>
    8b0c:	e3a00000 	mov	r0, #0, 0
    8b10:	ea000025 	b	8bac <do_data_transfer+0xdc>
    8b14:	e4941004 	ldr	r1, [r4], #4
    8b18:	e59f2098 	ldr	r2, [pc, #152]	; 8bb8 <do_data_transfer+0xe8>
    8b1c:	e5821020 	str	r1, [r2, #32]
    8b20:	e2433004 	sub	r3, r3, #4, 0
    8b24:	e3530000 	cmp	r3, #0, 0
    8b28:	1afffff9 	bne	8b14 <do_data_transfer+0x44>
    8b2c:	e2866001 	add	r6, r6, #1, 0
    8b30:	e59f307c 	ldr	r3, [pc, #124]	; 8bb4 <do_data_transfer+0xe4>
    8b34:	e5933004 	ldr	r3, [r3, #4]
    8b38:	e1530006 	cmp	r3, r6
    8b3c:	9a000019 	bls	8ba8 <do_data_transfer+0xd8>
    8b40:	e3858902 	orr	r8, r5, #32768	; 0x8000
    8b44:	e3a03e7d 	mov	r3, #2000	; 0x7d0
    8b48:	e3a02001 	mov	r2, #1, 0
    8b4c:	e1a01008 	mov	r1, r8
    8b50:	e59f0064 	ldr	r0, [pc, #100]	; 8bbc <do_data_transfer+0xec>
    8b54:	ebffffc6 	bl	8a74 <wait_reg_mask>
    8b58:	e59f3058 	ldr	r3, [pc, #88]	; 8bb8 <do_data_transfer+0xe8>
    8b5c:	e5930030 	ldr	r0, [r3, #48]	; 0x30
    8b60:	e5838030 	str	r8, [r3, #48]	; 0x30
    8b64:	e1e03805 	mvn	r3, r5, lsl #16
    8b68:	e1e03823 	mvn	r3, r3, lsr #16
    8b6c:	e0033000 	and	r3, r3, r0
    8b70:	e1530005 	cmp	r3, r5
    8b74:	1affffe3 	bne	8b08 <do_data_transfer+0x38>
    8b78:	e59f3034 	ldr	r3, [pc, #52]	; 8bb4 <do_data_transfer+0xe4>
    8b7c:	e5933010 	ldr	r3, [r3, #16]
    8b80:	e3570000 	cmp	r7, #0, 0
    8b84:	1affffe6 	bne	8b24 <do_data_transfer+0x54>
    8b88:	ea000003 	b	8b9c <do_data_transfer+0xcc>
    8b8c:	e59f2024 	ldr	r2, [pc, #36]	; 8bb8 <do_data_transfer+0xe8>
    8b90:	e5922020 	ldr	r2, [r2, #32]
    8b94:	e4842004 	str	r2, [r4], #4
    8b98:	e2433004 	sub	r3, r3, #4, 0
    8b9c:	e3530000 	cmp	r3, #0, 0
    8ba0:	1afffff9 	bne	8b8c <do_data_transfer+0xbc>
    8ba4:	eaffffe0 	b	8b2c <do_data_transfer+0x5c>
    8ba8:	e3a00001 	mov	r0, #1, 0
    8bac:	e28dd008 	add	sp, sp, #8, 0
    8bb0:	e8bd81f0 	pop	{r4, r5, r6, r7, r8, pc}
    8bb4:	000106c0 	.word	0x000106c0
    8bb8:	20300000 	.word	0x20300000
    8bbc:	20300030 	.word	0x20300030

00008bc0 <emmc_issue_command>:
    8bc0:	e92d4030 	push	{r4, r5, lr}
    8bc4:	e24dd014 	sub	sp, sp, #20, 0
    8bc8:	e58d0004 	str	r0, [sp, #4]
    8bcc:	e1a05002 	mov	r5, r2
    8bd0:	e59d2004 	ldr	r2, [sp, #4]
    8bd4:	e59f31c8 	ldr	r3, [pc, #456]	; 8da4 <emmc_issue_command+0x1e4>
    8bd8:	e583200c 	str	r2, [r3, #12]
    8bdc:	e593200c 	ldr	r2, [r3, #12]
    8be0:	e58d200c 	str	r2, [sp, #12]
    8be4:	e5932004 	ldr	r2, [r3, #4]
    8be8:	e3520801 	cmp	r2, #65536	; 0x10000
    8bec:	2a000014 	bcs	8c44 <emmc_issue_command+0x84>
    8bf0:	e59f31ac 	ldr	r3, [pc, #428]	; 8da4 <emmc_issue_command+0x1e4>
    8bf4:	e5933010 	ldr	r3, [r3, #16]
    8bf8:	e1832802 	orr	r2, r3, r2, lsl #16
    8bfc:	e59f31a4 	ldr	r3, [pc, #420]	; 8da8 <emmc_issue_command+0x1e8>
    8c00:	e5832004 	str	r2, [r3, #4]
    8c04:	e5831008 	str	r1, [r3, #8]
    8c08:	e59d200c 	ldr	r2, [sp, #12]
    8c0c:	e583200c 	str	r2, [r3, #12]
    8c10:	e3a04000 	mov	r4, #0, 0
    8c14:	e1a02004 	mov	r2, r4
    8c18:	e1540005 	cmp	r4, r5
    8c1c:	2a00000d 	bcs	8c58 <emmc_issue_command+0x98>
    8c20:	e59f3180 	ldr	r3, [pc, #384]	; 8da8 <emmc_issue_command+0x1e8>
    8c24:	e5931030 	ldr	r1, [r3, #48]	; 0x30
    8c28:	e59f317c 	ldr	r3, [pc, #380]	; 8dac <emmc_issue_command+0x1ec>
    8c2c:	e1110003 	tst	r1, r3
    8c30:	1a000008 	bne	8c58 <emmc_issue_command+0x98>
    8c34:	e3a00001 	mov	r0, #1, 0
    8c38:	eb001204 	bl	d450 <delay_ms>
    8c3c:	e2844001 	add	r4, r4, #1, 0
    8c40:	eafffff3 	b	8c14 <emmc_issue_command+0x54>
    8c44:	e1a01002 	mov	r1, r2
    8c48:	e59f0160 	ldr	r0, [pc, #352]	; 8db0 <emmc_issue_command+0x1f0>
    8c4c:	eb001060 	bl	cdd4 <printk>
    8c50:	e3a00000 	mov	r0, #0, 0
    8c54:	ea000034 	b	8d2c <emmc_issue_command+0x16c>
    8c58:	e1520005 	cmp	r2, r5
    8c5c:	2a000034 	bcs	8d34 <emmc_issue_command+0x174>
    8c60:	e59f3140 	ldr	r3, [pc, #320]	; 8da8 <emmc_issue_command+0x1e8>
    8c64:	e5930030 	ldr	r0, [r3, #48]	; 0x30
    8c68:	e59f2144 	ldr	r2, [pc, #324]	; 8db4 <emmc_issue_command+0x1f4>
    8c6c:	e5832030 	str	r2, [r3, #48]	; 0x30
    8c70:	e3c03cff 	bic	r3, r0, #65280	; 0xff00
    8c74:	e3c330fe 	bic	r3, r3, #254, 0	; 0xfe
    8c78:	e3530001 	cmp	r3, #1, 0
    8c7c:	1a000032 	bne	8d4c <emmc_issue_command+0x18c>
    8c80:	e5dd3006 	ldrb	r3, [sp, #6]
    8c84:	e2033003 	and	r3, r3, #3, 0
    8c88:	e3530001 	cmp	r3, #1, 0
    8c8c:	0a000033 	beq	8d60 <emmc_issue_command+0x1a0>
    8c90:	e6af2073 	sxtb	r2, r3
    8c94:	e3520000 	cmp	r2, #0, 0
    8c98:	0a000006 	beq	8cb8 <emmc_issue_command+0xf8>
    8c9c:	e2833002 	add	r3, r3, #2, 0
    8ca0:	e2033003 	and	r3, r3, #3, 0
    8ca4:	e3530001 	cmp	r3, #1, 0
    8ca8:	959f30f8 	ldrls	r3, [pc, #248]	; 8da8 <emmc_issue_command+0x1e8>
    8cac:	95932010 	ldrls	r2, [r3, #16]
    8cb0:	959f30ec 	ldrls	r3, [pc, #236]	; 8da4 <emmc_issue_command+0x1e4>
    8cb4:	95832014 	strls	r2, [r3, #20]
    8cb8:	e5dd4006 	ldrb	r4, [sp, #6]
    8cbc:	e2145020 	ands	r5, r4, #32, 0
    8cc0:	1a000031 	bne	8d8c <emmc_issue_command+0x1cc>
    8cc4:	e2044003 	and	r4, r4, #3, 0
    8cc8:	e3540003 	cmp	r4, #3, 0
    8ccc:	0a000001 	beq	8cd8 <emmc_issue_command+0x118>
    8cd0:	e3550000 	cmp	r5, #0, 0
    8cd4:	0a000011 	beq	8d20 <emmc_issue_command+0x160>
    8cd8:	e3a03e7d 	mov	r3, #2000	; 0x7d0
    8cdc:	e3a02001 	mov	r2, #1, 0
    8ce0:	e59f10d0 	ldr	r1, [pc, #208]	; 8db8 <emmc_issue_command+0x1f8>
    8ce4:	e59f00d0 	ldr	r0, [pc, #208]	; 8dbc <emmc_issue_command+0x1fc>
    8ce8:	ebffff61 	bl	8a74 <wait_reg_mask>
    8cec:	e59f30b4 	ldr	r3, [pc, #180]	; 8da8 <emmc_issue_command+0x1e8>
    8cf0:	e5930030 	ldr	r0, [r3, #48]	; 0x30
    8cf4:	e59f20c4 	ldr	r2, [pc, #196]	; 8dc0 <emmc_issue_command+0x200>
    8cf8:	e5832030 	str	r2, [r3, #48]	; 0x30
    8cfc:	e3c03cff 	bic	r3, r0, #65280	; 0xff00
    8d00:	e3c330fd 	bic	r3, r3, #253, 0	; 0xfd
    8d04:	e2822811 	add	r2, r2, #1114112	; 0x110000
    8d08:	e3530002 	cmp	r3, #2, 0
    8d0c:	11530002 	cmpne	r3, r2
    8d10:	1a000020 	bne	8d98 <emmc_issue_command+0x1d8>
    8d14:	e59f308c 	ldr	r3, [pc, #140]	; 8da8 <emmc_issue_command+0x1e8>
    8d18:	e59f20a0 	ldr	r2, [pc, #160]	; 8dc0 <emmc_issue_command+0x200>
    8d1c:	e5832030 	str	r2, [r3, #48]	; 0x30
    8d20:	e3a00001 	mov	r0, #1, 0
    8d24:	e59f3078 	ldr	r3, [pc, #120]	; 8da4 <emmc_issue_command+0x1e4>
    8d28:	e5c30000 	strb	r0, [r3]
    8d2c:	e28dd014 	add	sp, sp, #20, 0
    8d30:	e8bd8030 	pop	{r4, r5, pc}
    8d34:	e59f0088 	ldr	r0, [pc, #136]	; 8dc4 <emmc_issue_command+0x204>
    8d38:	eb001025 	bl	cdd4 <printk>
    8d3c:	e3a00000 	mov	r0, #0, 0
    8d40:	e59f305c 	ldr	r3, [pc, #92]	; 8da4 <emmc_issue_command+0x1e4>
    8d44:	e5c30000 	strb	r0, [r3]
    8d48:	eafffff7 	b	8d2c <emmc_issue_command+0x16c>
    8d4c:	ebffff25 	bl	89e8 <set_last_error>
    8d50:	e3a00000 	mov	r0, #0, 0
    8d54:	e59f3048 	ldr	r3, [pc, #72]	; 8da4 <emmc_issue_command+0x1e4>
    8d58:	e5c30000 	strb	r0, [r3]
    8d5c:	eafffff2 	b	8d2c <emmc_issue_command+0x16c>
    8d60:	e59f2040 	ldr	r2, [pc, #64]	; 8da8 <emmc_issue_command+0x1e8>
    8d64:	e5921010 	ldr	r1, [r2, #16]
    8d68:	e59f3034 	ldr	r3, [pc, #52]	; 8da4 <emmc_issue_command+0x1e4>
    8d6c:	e5831014 	str	r1, [r3, #20]
    8d70:	e5921014 	ldr	r1, [r2, #20]
    8d74:	e5831018 	str	r1, [r3, #24]
    8d78:	e5921018 	ldr	r1, [r2, #24]
    8d7c:	e583101c 	str	r1, [r3, #28]
    8d80:	e592201c 	ldr	r2, [r2, #28]
    8d84:	e5832020 	str	r2, [r3, #32]
    8d88:	eaffffca 	b	8cb8 <emmc_issue_command+0xf8>
    8d8c:	e59d0004 	ldr	r0, [sp, #4]
    8d90:	ebffff4e 	bl	8ad0 <do_data_transfer>
    8d94:	eaffffca 	b	8cc4 <emmc_issue_command+0x104>
    8d98:	ebffff12 	bl	89e8 <set_last_error>
    8d9c:	e3a00000 	mov	r0, #0, 0
    8da0:	eaffffe1 	b	8d2c <emmc_issue_command+0x16c>
    8da4:	000106c0 	.word	0x000106c0
    8da8:	20300000 	.word	0x20300000
    8dac:	00008001 	.word	0x00008001
    8db0:	0000dedc 	.word	0x0000dedc
    8db4:	ffff0001 	.word	0xffff0001
    8db8:	00008002 	.word	0x00008002
    8dbc:	20300030 	.word	0x20300030
    8dc0:	ffff0002 	.word	0xffff0002
    8dc4:	0000df04 	.word	0x0000df04

00008dc8 <emmc_command>:
    8dc8:	e92d4010 	push	{r4, lr}
    8dcc:	e3500000 	cmp	r0, #0, 0
    8dd0:	ba00000b 	blt	8e04 <emmc_command+0x3c>
    8dd4:	e59fc048 	ldr	ip, [pc, #72]	; 8e24 <emmc_command+0x5c>
    8dd8:	e59f3048 	ldr	r3, [pc, #72]	; 8e28 <emmc_command+0x60>
    8ddc:	e7930100 	ldr	r0, [r3, r0, lsl #2]
    8de0:	e58c0008 	str	r0, [ip, #8]
    8de4:	e59c0008 	ldr	r0, [ip, #8]
    8de8:	e59330e0 	ldr	r3, [r3, #224]	; 0xe0
    8dec:	e1500003 	cmp	r0, r3
    8df0:	0a000007 	beq	8e14 <emmc_command+0x4c>
    8df4:	e59f3028 	ldr	r3, [pc, #40]	; 8e24 <emmc_command+0x5c>
    8df8:	e5930008 	ldr	r0, [r3, #8]
    8dfc:	ebffff6f 	bl	8bc0 <emmc_issue_command>
    8e00:	e8bd8010 	pop	{r4, pc}
    8e04:	e59f0020 	ldr	r0, [pc, #32]	; 8e2c <emmc_command+0x64>
    8e08:	eb000ff1 	bl	cdd4 <printk>
    8e0c:	e3a00000 	mov	r0, #0, 0
    8e10:	e8bd8010 	pop	{r4, pc}
    8e14:	e59f0014 	ldr	r0, [pc, #20]	; 8e30 <emmc_command+0x68>
    8e18:	eb000fed 	bl	cdd4 <printk>
    8e1c:	e3a00000 	mov	r0, #0, 0
    8e20:	e8bd8010 	pop	{r4, pc}
    8e24:	000106c0 	.word	0x000106c0
    8e28:	0000e370 	.word	0x0000e370
    8e2c:	0000df30 	.word	0x0000df30
    8e30:	0000df54 	.word	0x0000df54

00008e34 <check_v2_card>:
    8e34:	e92d4010 	push	{r4, lr}
    8e38:	e3a020c8 	mov	r2, #200, 0	; 0xc8
    8e3c:	e59f10a0 	ldr	r1, [pc, #160]	; 8ee4 <check_v2_card+0xb0>
    8e40:	e3a00008 	mov	r0, #8, 0
    8e44:	ebffffdf 	bl	8dc8 <emmc_command>
    8e48:	e2504000 	subs	r4, r0, #0, 0
    8e4c:	1a000017 	bne	8eb0 <check_v2_card+0x7c>
    8e50:	e59f3090 	ldr	r3, [pc, #144]	; 8ee8 <check_v2_card+0xb4>
    8e54:	e5933040 	ldr	r3, [r3, #64]	; 0x40
    8e58:	e3530000 	cmp	r3, #0, 0
    8e5c:	0a000006 	beq	8e7c <check_v2_card+0x48>
    8e60:	e3130801 	tst	r3, #65536	; 0x10000
    8e64:	0a00000e 	beq	8ea4 <check_v2_card+0x70>
    8e68:	ebfffee5 	bl	8a04 <reset_command>
    8e6c:	e3500000 	cmp	r0, #0, 0
    8e70:	1a000004 	bne	8e88 <check_v2_card+0x54>
    8e74:	e1a04000 	mov	r4, r0
    8e78:	ea000013 	b	8ecc <check_v2_card+0x98>
    8e7c:	e59f0068 	ldr	r0, [pc, #104]	; 8eec <check_v2_card+0xb8>
    8e80:	eb000fd3 	bl	cdd4 <printk>
    8e84:	ea000010 	b	8ecc <check_v2_card+0x98>
    8e88:	e3a00000 	mov	r0, #0, 0
    8e8c:	ebfffed1 	bl	89d8 <sd_error_mask>
    8e90:	e59f3058 	ldr	r3, [pc, #88]	; 8ef0 <check_v2_card+0xbc>
    8e94:	e5830030 	str	r0, [r3, #48]	; 0x30
    8e98:	e59f0054 	ldr	r0, [pc, #84]	; 8ef4 <check_v2_card+0xc0>
    8e9c:	eb000fcc 	bl	cdd4 <printk>
    8ea0:	ea000009 	b	8ecc <check_v2_card+0x98>
    8ea4:	e59f004c 	ldr	r0, [pc, #76]	; 8ef8 <check_v2_card+0xc4>
    8ea8:	eb000fc9 	bl	cdd4 <printk>
    8eac:	ea000006 	b	8ecc <check_v2_card+0x98>
    8eb0:	e59f3030 	ldr	r3, [pc, #48]	; 8ee8 <check_v2_card+0xb4>
    8eb4:	e5931014 	ldr	r1, [r3, #20]
    8eb8:	e1a03a01 	lsl	r3, r1, #20
    8ebc:	e1a03a23 	lsr	r3, r3, #20
    8ec0:	e59f201c 	ldr	r2, [pc, #28]	; 8ee4 <check_v2_card+0xb0>
    8ec4:	e1530002 	cmp	r3, r2
    8ec8:	1a000001 	bne	8ed4 <check_v2_card+0xa0>
    8ecc:	e1a00004 	mov	r0, r4
    8ed0:	e8bd8010 	pop	{r4, pc}
    8ed4:	e59f0020 	ldr	r0, [pc, #32]	; 8efc <check_v2_card+0xc8>
    8ed8:	eb000fbd 	bl	cdd4 <printk>
    8edc:	e3a04000 	mov	r4, #0, 0
    8ee0:	eafffff9 	b	8ecc <check_v2_card+0x98>
    8ee4:	000001aa 	.word	0x000001aa
    8ee8:	000106c0 	.word	0x000106c0
    8eec:	0000df70 	.word	0x0000df70
    8ef0:	20300000 	.word	0x20300000
    8ef4:	0000df90 	.word	0x0000df90
    8ef8:	0000dfb4 	.word	0x0000dfb4
    8efc:	0000dfdc 	.word	0x0000dfdc

00008f00 <check_usable_card>:
    8f00:	e92d4010 	push	{r4, lr}
    8f04:	e3a02ffa 	mov	r2, #1000	; 0x3e8
    8f08:	e3a01000 	mov	r1, #0, 0
    8f0c:	e3a00005 	mov	r0, #5, 0
    8f10:	ebffffac 	bl	8dc8 <emmc_command>
    8f14:	e2504000 	subs	r4, r0, #0, 0
    8f18:	1a000010 	bne	8f60 <check_usable_card+0x60>
    8f1c:	e59f3050 	ldr	r3, [pc, #80]	; 8f74 <check_usable_card+0x74>
    8f20:	e5933040 	ldr	r3, [r3, #64]	; 0x40
    8f24:	e3530000 	cmp	r3, #0, 0
    8f28:	0a000009 	beq	8f54 <check_usable_card+0x54>
    8f2c:	e3130801 	tst	r3, #65536	; 0x10000
    8f30:	0a00000c 	beq	8f68 <check_usable_card+0x68>
    8f34:	ebfffeb2 	bl	8a04 <reset_command>
    8f38:	e2504000 	subs	r4, r0, #0, 0
    8f3c:	0a000007 	beq	8f60 <check_usable_card+0x60>
    8f40:	e3a00000 	mov	r0, #0, 0
    8f44:	ebfffea3 	bl	89d8 <sd_error_mask>
    8f48:	e59f3028 	ldr	r3, [pc, #40]	; 8f78 <check_usable_card+0x78>
    8f4c:	e5830030 	str	r0, [r3, #48]	; 0x30
    8f50:	ea000002 	b	8f60 <check_usable_card+0x60>
    8f54:	e59f0020 	ldr	r0, [pc, #32]	; 8f7c <check_usable_card+0x7c>
    8f58:	eb000f9d 	bl	cdd4 <printk>
    8f5c:	e3a04001 	mov	r4, #1, 0
    8f60:	e1a00004 	mov	r0, r4
    8f64:	e8bd8010 	pop	{r4, pc}
    8f68:	e59f0010 	ldr	r0, [pc, #16]	; 8f80 <check_usable_card+0x80>
    8f6c:	eb000f98 	bl	cdd4 <printk>
    8f70:	eafffffa 	b	8f60 <check_usable_card+0x60>
    8f74:	000106c0 	.word	0x000106c0
    8f78:	20300000 	.word	0x20300000
    8f7c:	0000dffc 	.word	0x0000dffc
    8f80:	0000e020 	.word	0x0000e020

00008f84 <check_rca>:
    8f84:	e92d4010 	push	{r4, lr}
    8f88:	e3a02e7d 	mov	r2, #2000	; 0x7d0
    8f8c:	e3a01000 	mov	r1, #0, 0
    8f90:	e3a00002 	mov	r0, #2, 0
    8f94:	ebffff8b 	bl	8dc8 <emmc_command>
    8f98:	e2504000 	subs	r4, r0, #0, 0
    8f9c:	0a00000d 	beq	8fd8 <check_rca+0x54>
    8fa0:	e3a02e7d 	mov	r2, #2000	; 0x7d0
    8fa4:	e3a01000 	mov	r1, #0, 0
    8fa8:	e3a00003 	mov	r0, #3, 0
    8fac:	ebffff85 	bl	8dc8 <emmc_command>
    8fb0:	e2504000 	subs	r4, r0, #0, 0
    8fb4:	0a00000a 	beq	8fe4 <check_rca+0x60>
    8fb8:	e59f2040 	ldr	r2, [pc, #64]	; 9000 <check_rca+0x7c>
    8fbc:	e5923014 	ldr	r3, [r2, #20]
    8fc0:	e1a01823 	lsr	r1, r3, #16
    8fc4:	e5821028 	str	r1, [r2, #40]	; 0x28
    8fc8:	e3130c01 	tst	r3, #256	; 0x100
    8fcc:	0a000007 	beq	8ff0 <check_rca+0x6c>
    8fd0:	e1a00004 	mov	r0, r4
    8fd4:	e8bd8010 	pop	{r4, pc}
    8fd8:	e59f0024 	ldr	r0, [pc, #36]	; 9004 <check_rca+0x80>
    8fdc:	eb000f7c 	bl	cdd4 <printk>
    8fe0:	eafffffa 	b	8fd0 <check_rca+0x4c>
    8fe4:	e59f001c 	ldr	r0, [pc, #28]	; 9008 <check_rca+0x84>
    8fe8:	eb000f79 	bl	cdd4 <printk>
    8fec:	eafffff7 	b	8fd0 <check_rca+0x4c>
    8ff0:	e59f0014 	ldr	r0, [pc, #20]	; 900c <check_rca+0x88>
    8ff4:	eb000f76 	bl	cdd4 <printk>
    8ff8:	e3a04000 	mov	r4, #0, 0
    8ffc:	eafffff3 	b	8fd0 <check_rca+0x4c>
    9000:	000106c0 	.word	0x000106c0
    9004:	0000e044 	.word	0x0000e044
    9008:	0000e064 	.word	0x0000e064
    900c:	0000e08c 	.word	0x0000e08c

00009010 <select_card>:
    9010:	e92d4010 	push	{r4, lr}
    9014:	e59f3058 	ldr	r3, [pc, #88]	; 9074 <select_card+0x64>
    9018:	e5931028 	ldr	r1, [r3, #40]	; 0x28
    901c:	e3a02e7d 	mov	r2, #2000	; 0x7d0
    9020:	e1a01801 	lsl	r1, r1, #16
    9024:	e3a00007 	mov	r0, #7, 0
    9028:	ebffff66 	bl	8dc8 <emmc_command>
    902c:	e2504000 	subs	r4, r0, #0, 0
    9030:	0a000008 	beq	9058 <select_card+0x48>
    9034:	e59f3038 	ldr	r3, [pc, #56]	; 9074 <select_card+0x64>
    9038:	e5931014 	ldr	r1, [r3, #20]
    903c:	e1a014a1 	lsr	r1, r1, #9
    9040:	e201100f 	and	r1, r1, #15, 0
    9044:	e2413003 	sub	r3, r1, #3, 0
    9048:	e3530001 	cmp	r3, #1, 0
    904c:	8a000004 	bhi	9064 <select_card+0x54>
    9050:	e1a00004 	mov	r0, r4
    9054:	e8bd8010 	pop	{r4, pc}
    9058:	e59f0018 	ldr	r0, [pc, #24]	; 9078 <select_card+0x68>
    905c:	eb000f5c 	bl	cdd4 <printk>
    9060:	eafffffa 	b	9050 <select_card+0x40>
    9064:	e59f0010 	ldr	r0, [pc, #16]	; 907c <select_card+0x6c>
    9068:	eb000f59 	bl	cdd4 <printk>
    906c:	e3a04000 	mov	r4, #0, 0
    9070:	eafffff6 	b	9050 <select_card+0x40>
    9074:	000106c0 	.word	0x000106c0
    9078:	0000e0ac 	.word	0x0000e0ac
    907c:	0000e0d0 	.word	0x0000e0d0

00009080 <do_data_command>:
    9080:	e92d40f0 	push	{r4, r5, r6, r7, lr}
    9084:	e24dd00c 	sub	sp, sp, #12, 0
    9088:	e1a0c001 	mov	ip, r1
    908c:	e1a01002 	mov	r1, r2
    9090:	e1a05003 	mov	r5, r3
    9094:	e59f3114 	ldr	r3, [pc, #276]	; 91b0 <do_data_command+0x130>
    9098:	e5d33024 	ldrb	r3, [r3, #36]	; 0x24
    909c:	e3530000 	cmp	r3, #0, 0
    90a0:	01a05485 	lsleq	r5, r5, #9
    90a4:	e59f3104 	ldr	r3, [pc, #260]	; 91b0 <do_data_command+0x130>
    90a8:	e5932010 	ldr	r2, [r3, #16]
    90ac:	e1520001 	cmp	r2, r1
    90b0:	8a000010 	bhi	90f8 <do_data_command+0x78>
    90b4:	e3520c02 	cmp	r2, #512	; 0x200
    90b8:	1a000012 	bne	9108 <do_data_command+0x88>
    90bc:	e1a034a1 	lsr	r3, r1, #9
    90c0:	e59f20e8 	ldr	r2, [pc, #232]	; 91b0 <do_data_command+0x130>
    90c4:	e5823004 	str	r3, [r2, #4]
    90c8:	e1a02b81 	lsl	r2, r1, #23
    90cc:	e1a02ba2 	lsr	r2, r2, #23
    90d0:	e3520000 	cmp	r2, #0, 0
    90d4:	1a000013 	bne	9128 <do_data_command+0xa8>
    90d8:	e59f20d0 	ldr	r2, [pc, #208]	; 91b0 <do_data_command+0x130>
    90dc:	e582c038 	str	ip, [r2, #56]	; 0x38
    90e0:	e3500000 	cmp	r0, #0, 0
    90e4:	0a000013 	beq	9138 <do_data_command+0xb8>
    90e8:	e3530001 	cmp	r3, #1, 0
    90ec:	9a000011 	bls	9138 <do_data_command+0xb8>
    90f0:	e3a07019 	mov	r7, #25, 0
    90f4:	ea000017 	b	9158 <do_data_command+0xd8>
    90f8:	e59f00b4 	ldr	r0, [pc, #180]	; 91b4 <do_data_command+0x134>
    90fc:	eb000f34 	bl	cdd4 <printk>
    9100:	e3a04000 	mov	r4, #0, 0
    9104:	ea000026 	b	91a4 <do_data_command+0x124>
    9108:	e59f30a8 	ldr	r3, [pc, #168]	; 91b8 <do_data_command+0x138>
    910c:	e58d3000 	str	r3, [sp]
    9110:	e59f30a4 	ldr	r3, [pc, #164]	; 91bc <do_data_command+0x13c>
    9114:	e59f20a4 	ldr	r2, [pc, #164]	; 91c0 <do_data_command+0x140>
    9118:	e59f10a4 	ldr	r1, [pc, #164]	; 91c4 <do_data_command+0x144>
    911c:	e59f00a4 	ldr	r0, [pc, #164]	; 91c8 <do_data_command+0x148>
    9120:	eb000f2b 	bl	cdd4 <printk>
    9124:	eb00105a 	bl	d294 <clean_reboot>
    9128:	e59f009c 	ldr	r0, [pc, #156]	; 91cc <do_data_command+0x14c>
    912c:	eb000f28 	bl	cdd4 <printk>
    9130:	e3a04000 	mov	r4, #0, 0
    9134:	ea00001a 	b	91a4 <do_data_command+0x124>
    9138:	e3500000 	cmp	r0, #0, 0
    913c:	1a000004 	bne	9154 <do_data_command+0xd4>
    9140:	e3530001 	cmp	r3, #1, 0
    9144:	83a07012 	movhi	r7, #18, 0
    9148:	8a000002 	bhi	9158 <do_data_command+0xd8>
    914c:	e3a07011 	mov	r7, #17, 0
    9150:	ea000000 	b	9158 <do_data_command+0xd8>
    9154:	e3a07018 	mov	r7, #24, 0
    9158:	e3a06000 	mov	r6, #0, 0
    915c:	e3560002 	cmp	r6, #2, 0
    9160:	ca00000e 	bgt	91a0 <do_data_command+0x120>
    9164:	e59f2064 	ldr	r2, [pc, #100]	; 91d0 <do_data_command+0x150>
    9168:	e1a01005 	mov	r1, r5
    916c:	e1a00007 	mov	r0, r7
    9170:	ebffff14 	bl	8dc8 <emmc_command>
    9174:	e2504000 	subs	r4, r0, #0, 0
    9178:	1a000009 	bne	91a4 <do_data_command+0x124>
    917c:	e2866001 	add	r6, r6, #1, 0
    9180:	e3560002 	cmp	r6, #2, 0
    9184:	ca000002 	bgt	9194 <do_data_command+0x114>
    9188:	e59f0044 	ldr	r0, [pc, #68]	; 91d4 <do_data_command+0x154>
    918c:	eb000f10 	bl	cdd4 <printk>
    9190:	eafffff1 	b	915c <do_data_command+0xdc>
    9194:	e59f003c 	ldr	r0, [pc, #60]	; 91d8 <do_data_command+0x158>
    9198:	eb000f0d 	bl	cdd4 <printk>
    919c:	ea000000 	b	91a4 <do_data_command+0x124>
    91a0:	e3a04001 	mov	r4, #1, 0
    91a4:	e1a00004 	mov	r0, r4
    91a8:	e28dd00c 	add	sp, sp, #12, 0
    91ac:	e8bd80f0 	pop	{r4, r5, r6, r7, pc}
    91b0:	000106c0 	.word	0x000106c0
    91b4:	0000e0f0 	.word	0x0000e0f0
    91b8:	0000e150 	.word	0x0000e150
    91bc:	000002b1 	.word	0x000002b1
    91c0:	0000e454 	.word	0x0000e454
    91c4:	0000e110 	.word	0x0000e110
    91c8:	0000e120 	.word	0x0000e120
    91cc:	0000e16c 	.word	0x0000e16c
    91d0:	00001388 	.word	0x00001388
    91d4:	0000e188 	.word	0x0000e188
    91d8:	0000e1ac 	.word	0x0000e1ac

000091dc <emmc_setup_clock>:
    91dc:	e92d4070 	push	{r4, r5, r6, lr}
    91e0:	e59f5074 	ldr	r5, [pc, #116]	; 925c <emmc_setup_clock+0x80>
    91e4:	e3a03000 	mov	r3, #0, 0
    91e8:	e585303c 	str	r3, [r5, #60]	; 0x3c
    91ec:	e595402c 	ldr	r4, [r5, #44]	; 0x2c
    91f0:	e3844001 	orr	r4, r4, #1, 0
    91f4:	e59f0064 	ldr	r0, [pc, #100]	; 9260 <emmc_setup_clock+0x84>
    91f8:	ebfffdc5 	bl	8914 <get_clock_divider>
    91fc:	e1844000 	orr	r4, r4, r0
    9200:	e3c4480f 	bic	r4, r4, #983040	; 0xf0000
    9204:	e384480b 	orr	r4, r4, #720896	; 0xb0000
    9208:	e585402c 	str	r4, [r5, #44]	; 0x2c
    920c:	e3a03e7d 	mov	r3, #2000	; 0x7d0
    9210:	e3a02001 	mov	r2, #1, 0
    9214:	e3a01002 	mov	r1, #2, 0
    9218:	e59f0044 	ldr	r0, [pc, #68]	; 9264 <emmc_setup_clock+0x88>
    921c:	ebfffe14 	bl	8a74 <wait_reg_mask>
    9220:	e2504000 	subs	r4, r0, #0, 0
    9224:	0a000009 	beq	9250 <emmc_setup_clock+0x74>
    9228:	e3a0001e 	mov	r0, #30, 0
    922c:	eb001087 	bl	d450 <delay_ms>
    9230:	e59f2024 	ldr	r2, [pc, #36]	; 925c <emmc_setup_clock+0x80>
    9234:	e592302c 	ldr	r3, [r2, #44]	; 0x2c
    9238:	e3833004 	orr	r3, r3, #4, 0
    923c:	e582302c 	str	r3, [r2, #44]	; 0x2c
    9240:	e3a0001e 	mov	r0, #30, 0
    9244:	eb001081 	bl	d450 <delay_ms>
    9248:	e1a00004 	mov	r0, r4
    924c:	e8bd8070 	pop	{r4, r5, r6, pc}
    9250:	e59f0010 	ldr	r0, [pc, #16]	; 9268 <emmc_setup_clock+0x8c>
    9254:	eb000ede 	bl	cdd4 <printk>
    9258:	eafffffa 	b	9248 <emmc_setup_clock+0x6c>
    925c:	20300000 	.word	0x20300000
    9260:	0ee6b280 	.word	0x0ee6b280
    9264:	2030002c 	.word	0x2030002c
    9268:	0000e1d0 	.word	0x0000e1d0

0000926c <emmc_app_command>:
    926c:	e92d4070 	push	{r4, r5, r6, lr}
    9270:	e59f307c 	ldr	r3, [pc, #124]	; 92f4 <emmc_app_command+0x88>
    9274:	e0833100 	add	r3, r3, r0, lsl #2
    9278:	e5d33003 	ldrb	r3, [r3, #3]
    927c:	e203303f 	and	r3, r3, #63, 0	; 0x3f
    9280:	e353003b 	cmp	r3, #59, 0	; 0x3b
    9284:	8a000016 	bhi	92e4 <emmc_app_command+0x78>
    9288:	e1a04000 	mov	r4, r0
    928c:	e1a05001 	mov	r5, r1
    9290:	e59f3060 	ldr	r3, [pc, #96]	; 92f8 <emmc_app_command+0x8c>
    9294:	e59f2058 	ldr	r2, [pc, #88]	; 92f4 <emmc_app_command+0x88>
    9298:	e59220dc 	ldr	r2, [r2, #220]	; 0xdc
    929c:	e5832008 	str	r2, [r3, #8]
    92a0:	e5931028 	ldr	r1, [r3, #40]	; 0x28
    92a4:	e3510000 	cmp	r1, #0, 0
    92a8:	11a01801 	lslne	r1, r1, #16
    92ac:	e3a02e7d 	mov	r2, #2000	; 0x7d0
    92b0:	e59f3040 	ldr	r3, [pc, #64]	; 92f8 <emmc_app_command+0x8c>
    92b4:	e5930008 	ldr	r0, [r3, #8]
    92b8:	ebfffe40 	bl	8bc0 <emmc_issue_command>
    92bc:	e3500000 	cmp	r0, #0, 0
    92c0:	08bd8070 	popeq	{r4, r5, r6, pc}
    92c4:	e59f3028 	ldr	r3, [pc, #40]	; 92f4 <emmc_app_command+0x88>
    92c8:	e7930104 	ldr	r0, [r3, r4, lsl #2]
    92cc:	e59f3024 	ldr	r3, [pc, #36]	; 92f8 <emmc_app_command+0x8c>
    92d0:	e5830008 	str	r0, [r3, #8]
    92d4:	e3a02e7d 	mov	r2, #2000	; 0x7d0
    92d8:	e1a01005 	mov	r1, r5
    92dc:	ebfffe37 	bl	8bc0 <emmc_issue_command>
    92e0:	e8bd8070 	pop	{r4, r5, r6, pc}
    92e4:	e59f0010 	ldr	r0, [pc, #16]	; 92fc <emmc_app_command+0x90>
    92e8:	eb000eb9 	bl	cdd4 <printk>
    92ec:	e3a00000 	mov	r0, #0, 0
    92f0:	e8bd8070 	pop	{r4, r5, r6, pc}
    92f4:	0000e370 	.word	0x0000e370
    92f8:	000106c0 	.word	0x000106c0
    92fc:	0000e1f0 	.word	0x0000e1f0

00009300 <check_ocr>:
    9300:	e92d4010 	push	{r4, lr}
    9304:	e3a02e7d 	mov	r2, #2000	; 0x7d0
    9308:	e3a01000 	mov	r1, #0, 0
    930c:	e3a00029 	mov	r0, #41, 0	; 0x29
    9310:	ebffffd5 	bl	926c <emmc_app_command>
    9314:	e2504000 	subs	r4, r0, #0, 0
    9318:	0a000005 	beq	9334 <check_ocr+0x34>
    931c:	e59f2020 	ldr	r2, [pc, #32]	; 9344 <check_ocr+0x44>
    9320:	e5923014 	ldr	r3, [r2, #20]
    9324:	e1a03423 	lsr	r3, r3, #8
    9328:	e1c232b6 	strh	r3, [r2, #38]	; 0x26
    932c:	e1a00004 	mov	r0, r4
    9330:	e8bd8010 	pop	{r4, pc}
    9334:	e3a01001 	mov	r1, #1, 0
    9338:	e59f0008 	ldr	r0, [pc, #8]	; 9348 <check_ocr+0x48>
    933c:	eb000ea4 	bl	cdd4 <printk>
    9340:	eafffff9 	b	932c <check_ocr+0x2c>
    9344:	000106c0 	.word	0x000106c0
    9348:	0000e210 	.word	0x0000e210

0000934c <check_sdhc_support>:
    934c:	e92d4070 	push	{r4, r5, r6, lr}
    9350:	e1a05000 	mov	r5, r0
    9354:	ea00000d 	b	9390 <check_sdhc_support+0x44>
    9358:	e3a01101 	mov	r1, #1073741824	; 0x40000000
    935c:	e3a02e7d 	mov	r2, #2000	; 0x7d0
    9360:	e38118ff 	orr	r1, r1, #16711680	; 0xff0000
    9364:	e3811902 	orr	r1, r1, #32768	; 0x8000
    9368:	e3a00029 	mov	r0, #41, 0	; 0x29
    936c:	ebffffbe 	bl	926c <emmc_app_command>
    9370:	e2504000 	subs	r4, r0, #0, 0
    9374:	0a000009 	beq	93a0 <check_sdhc_support+0x54>
    9378:	e59f304c 	ldr	r3, [pc, #76]	; 93cc <check_sdhc_support+0x80>
    937c:	e5933014 	ldr	r3, [r3, #20]
    9380:	e3530000 	cmp	r3, #0, 0
    9384:	ba000009 	blt	93b0 <check_sdhc_support+0x64>
    9388:	e3a00f7d 	mov	r0, #500	; 0x1f4
    938c:	eb00102f 	bl	d450 <delay_ms>
    9390:	e3550000 	cmp	r5, #0, 0
    9394:	1affffef 	bne	9358 <check_sdhc_support+0xc>
    9398:	e3a01000 	mov	r1, #0, 0
    939c:	eaffffee 	b	935c <check_sdhc_support+0x10>
    93a0:	e59f0028 	ldr	r0, [pc, #40]	; 93d0 <check_sdhc_support+0x84>
    93a4:	eb000e8a 	bl	cdd4 <printk>
    93a8:	e1a00004 	mov	r0, r4
    93ac:	e8bd8070 	pop	{r4, r5, r6, pc}
    93b0:	e1a01423 	lsr	r1, r3, #8
    93b4:	e59f2010 	ldr	r2, [pc, #16]	; 93cc <check_sdhc_support+0x80>
    93b8:	e1c212b6 	strh	r1, [r2, #38]	; 0x26
    93bc:	e1a03f23 	lsr	r3, r3, #30
    93c0:	e2033001 	and	r3, r3, #1, 0
    93c4:	e5c23024 	strb	r3, [r2, #36]	; 0x24
    93c8:	eafffff6 	b	93a8 <check_sdhc_support+0x5c>
    93cc:	000106c0 	.word	0x000106c0
    93d0:	0000e23c 	.word	0x0000e23c

000093d4 <set_scr>:
    93d4:	e92d4010 	push	{r4, lr}
    93d8:	e59f313c 	ldr	r3, [pc, #316]	; 951c <set_scr+0x148>
    93dc:	e5d33024 	ldrb	r3, [r3, #36]	; 0x24
    93e0:	e3530000 	cmp	r3, #0, 0
    93e4:	1a000005 	bne	9400 <set_scr+0x2c>
    93e8:	e3a02e7d 	mov	r2, #2000	; 0x7d0
    93ec:	e3a01c02 	mov	r1, #512	; 0x200
    93f0:	e3a00010 	mov	r0, #16, 0
    93f4:	ebfffe73 	bl	8dc8 <emmc_command>
    93f8:	e2504000 	subs	r4, r0, #0, 0
    93fc:	0a00002a 	beq	94ac <set_scr+0xd8>
    9400:	e59f2118 	ldr	r2, [pc, #280]	; 9520 <set_scr+0x14c>
    9404:	e5923004 	ldr	r3, [r2, #4]
    9408:	e3c33eff 	bic	r3, r3, #4080	; 0xff0
    940c:	e3c3300f 	bic	r3, r3, #15, 0
    9410:	e3833c02 	orr	r3, r3, #512	; 0x200
    9414:	e5823004 	str	r3, [r2, #4]
    9418:	e59f30fc 	ldr	r3, [pc, #252]	; 951c <set_scr+0x148>
    941c:	e2832048 	add	r2, r3, #72, 0	; 0x48
    9420:	e5832038 	str	r2, [r3, #56]	; 0x38
    9424:	e3a02008 	mov	r2, #8, 0
    9428:	e5832010 	str	r2, [r3, #16]
    942c:	e3a02001 	mov	r2, #1, 0
    9430:	e5832004 	str	r2, [r3, #4]
    9434:	e59f20e8 	ldr	r2, [pc, #232]	; 9524 <set_scr+0x150>
    9438:	e3a01000 	mov	r1, #0, 0
    943c:	e3a00033 	mov	r0, #51, 0	; 0x33
    9440:	ebffff89 	bl	926c <emmc_app_command>
    9444:	e2504000 	subs	r4, r0, #0, 0
    9448:	0a00001a 	beq	94b8 <set_scr+0xe4>
    944c:	e59f10c8 	ldr	r1, [pc, #200]	; 951c <set_scr+0x148>
    9450:	e3a03c02 	mov	r3, #512	; 0x200
    9454:	e5813010 	str	r3, [r1, #16]
    9458:	e5913048 	ldr	r3, [r1, #72]	; 0x48
    945c:	e1a02403 	lsl	r2, r3, #8
    9460:	e20228ff 	and	r2, r2, #16711680	; 0xff0000
    9464:	e1822c03 	orr	r2, r2, r3, lsl #24
    9468:	e1a03423 	lsr	r3, r3, #8
    946c:	e2033cff 	and	r3, r3, #65280	; 0xff00
    9470:	e1823003 	orr	r3, r2, r3
    9474:	e3e00000 	mvn	r0, #0, 0
    9478:	e5810054 	str	r0, [r1, #84]	; 0x54
    947c:	e1a02c22 	lsr	r2, r2, #24
    9480:	e1a017a3 	lsr	r1, r3, #15
    9484:	e2011001 	and	r1, r1, #1, 0
    9488:	e1a03523 	lsr	r3, r3, #10
    948c:	e2033001 	and	r3, r3, #1, 0
    9490:	e212200f 	ands	r2, r2, #15, 0
    9494:	1a00000a 	bne	94c4 <set_scr+0xf0>
    9498:	e59f307c 	ldr	r3, [pc, #124]	; 951c <set_scr+0x148>
    949c:	e3a02001 	mov	r2, #1, 0
    94a0:	e5832054 	str	r2, [r3, #84]	; 0x54
    94a4:	e1a00004 	mov	r0, r4
    94a8:	e8bd8010 	pop	{r4, pc}
    94ac:	e59f0074 	ldr	r0, [pc, #116]	; 9528 <set_scr+0x154>
    94b0:	eb000e47 	bl	cdd4 <printk>
    94b4:	eafffffa 	b	94a4 <set_scr+0xd0>
    94b8:	e59f006c 	ldr	r0, [pc, #108]	; 952c <set_scr+0x158>
    94bc:	eb000e44 	bl	cdd4 <printk>
    94c0:	eafffff7 	b	94a4 <set_scr+0xd0>
    94c4:	e3520001 	cmp	r2, #1, 0
    94c8:	0a000006 	beq	94e8 <set_scr+0x114>
    94cc:	e3520002 	cmp	r2, #2, 0
    94d0:	1afffff3 	bne	94a4 <set_scr+0xd0>
    94d4:	e3510000 	cmp	r1, #0, 0
    94d8:	1a000006 	bne	94f8 <set_scr+0x124>
    94dc:	e59f3038 	ldr	r3, [pc, #56]	; 951c <set_scr+0x148>
    94e0:	e5832054 	str	r2, [r3, #84]	; 0x54
    94e4:	eaffffee 	b	94a4 <set_scr+0xd0>
    94e8:	e59f302c 	ldr	r3, [pc, #44]	; 951c <set_scr+0x148>
    94ec:	e3a0200b 	mov	r2, #11, 0
    94f0:	e5832054 	str	r2, [r3, #84]	; 0x54
    94f4:	eaffffea 	b	94a4 <set_scr+0xd0>
    94f8:	e3530000 	cmp	r3, #0, 0
    94fc:	059f2018 	ldreq	r2, [pc, #24]	; 951c <set_scr+0x148>
    9500:	03a01003 	moveq	r1, #3, 0
    9504:	05821054 	streq	r1, [r2, #84]	; 0x54
    9508:	e3530000 	cmp	r3, #0, 0
    950c:	159f3008 	ldrne	r3, [pc, #8]	; 951c <set_scr+0x148>
    9510:	13a02004 	movne	r2, #4, 0
    9514:	15832054 	strne	r2, [r3, #84]	; 0x54
    9518:	eaffffe1 	b	94a4 <set_scr+0xd0>
    951c:	000106c0 	.word	0x000106c0
    9520:	20300000 	.word	0x20300000
    9524:	00007530 	.word	0x00007530
    9528:	0000e260 	.word	0x0000e260
    952c:	0000e284 	.word	0x0000e284

00009530 <emmc_card_reset>:
    9530:	e92d4070 	push	{r4, r5, r6, lr}
    9534:	e59f30fc 	ldr	r3, [pc, #252]	; 9638 <emmc_card_reset+0x108>
    9538:	e3a02401 	mov	r2, #16777216	; 0x1000000
    953c:	e583202c 	str	r2, [r3, #44]	; 0x2c
    9540:	e3a03e7d 	mov	r3, #2000	; 0x7d0
    9544:	e3a02000 	mov	r2, #0, 0
    9548:	e3a01407 	mov	r1, #117440512	; 0x7000000
    954c:	e59f00e8 	ldr	r0, [pc, #232]	; 963c <emmc_card_reset+0x10c>
    9550:	ebfffd47 	bl	8a74 <wait_reg_mask>
    9554:	e2504000 	subs	r4, r0, #0, 0
    9558:	0a00002f 	beq	961c <emmc_card_reset+0xec>
    955c:	ebffff1e 	bl	91dc <emmc_setup_clock>
    9560:	e2504000 	subs	r4, r0, #0, 0
    9564:	0a00002e 	beq	9624 <emmc_card_reset+0xf4>
    9568:	e59f30c8 	ldr	r3, [pc, #200]	; 9638 <emmc_card_reset+0x108>
    956c:	e3a04000 	mov	r4, #0, 0
    9570:	e5834038 	str	r4, [r3, #56]	; 0x38
    9574:	e3e02000 	mvn	r2, #0, 0
    9578:	e5832030 	str	r2, [r3, #48]	; 0x30
    957c:	e5832034 	str	r2, [r3, #52]	; 0x34
    9580:	e3a000cb 	mov	r0, #203, 0	; 0xcb
    9584:	eb000fb1 	bl	d450 <delay_ms>
    9588:	e59f30b0 	ldr	r3, [pc, #176]	; 9640 <emmc_card_reset+0x110>
    958c:	e5834004 	str	r4, [r3, #4]
    9590:	e583400c 	str	r4, [r3, #12]
    9594:	e5c34000 	strb	r4, [r3]
    9598:	e5834010 	str	r4, [r3, #16]
    959c:	e3a02e7d 	mov	r2, #2000	; 0x7d0
    95a0:	e1a01004 	mov	r1, r4
    95a4:	e1a00004 	mov	r0, r4
    95a8:	ebfffe06 	bl	8dc8 <emmc_command>
    95ac:	e2504000 	subs	r4, r0, #0, 0
    95b0:	0a00001d 	beq	962c <emmc_card_reset+0xfc>
    95b4:	ebfffe1e 	bl	8e34 <check_v2_card>
    95b8:	e1a05000 	mov	r5, r0
    95bc:	ebfffe4f 	bl	8f00 <check_usable_card>
    95c0:	e2504000 	subs	r4, r0, #0, 0
    95c4:	0a000016 	beq	9624 <emmc_card_reset+0xf4>
    95c8:	ebffff4c 	bl	9300 <check_ocr>
    95cc:	e2504000 	subs	r4, r0, #0, 0
    95d0:	0a000013 	beq	9624 <emmc_card_reset+0xf4>
    95d4:	e1a00005 	mov	r0, r5
    95d8:	ebffff5b 	bl	934c <check_sdhc_support>
    95dc:	e2504000 	subs	r4, r0, #0, 0
    95e0:	0a00000f 	beq	9624 <emmc_card_reset+0xf4>
    95e4:	e3a0000a 	mov	r0, #10, 0
    95e8:	eb000f98 	bl	d450 <delay_ms>
    95ec:	ebfffe64 	bl	8f84 <check_rca>
    95f0:	e2504000 	subs	r4, r0, #0, 0
    95f4:	0a00000a 	beq	9624 <emmc_card_reset+0xf4>
    95f8:	ebfffe84 	bl	9010 <select_card>
    95fc:	e2504000 	subs	r4, r0, #0, 0
    9600:	0a000007 	beq	9624 <emmc_card_reset+0xf4>
    9604:	ebffff72 	bl	93d4 <set_scr>
    9608:	e2504000 	subs	r4, r0, #0, 0
    960c:	159f3024 	ldrne	r3, [pc, #36]	; 9638 <emmc_card_reset+0x108>
    9610:	13e02000 	mvnne	r2, #0, 0
    9614:	15832030 	strne	r2, [r3, #48]	; 0x30
    9618:	ea000001 	b	9624 <emmc_card_reset+0xf4>
    961c:	e59f0020 	ldr	r0, [pc, #32]	; 9644 <emmc_card_reset+0x114>
    9620:	eb000deb 	bl	cdd4 <printk>
    9624:	e1a00004 	mov	r0, r4
    9628:	e8bd8070 	pop	{r4, r5, r6, pc}
    962c:	e59f0014 	ldr	r0, [pc, #20]	; 9648 <emmc_card_reset+0x118>
    9630:	eb000de7 	bl	cdd4 <printk>
    9634:	eafffffa 	b	9624 <emmc_card_reset+0xf4>
    9638:	20300000 	.word	0x20300000
    963c:	2030002c 	.word	0x2030002c
    9640:	000106c0 	.word	0x000106c0
    9644:	0000e2a4 	.word	0x0000e2a4
    9648:	0000e2c4 	.word	0x0000e2c4

0000964c <emmc_read>:
    964c:	e92d4030 	push	{r4, r5, lr}
    9650:	e24dd00c 	sub	sp, sp, #12, 0
    9654:	e1a03b82 	lsl	r3, r2, #23
    9658:	e1a03ba3 	lsr	r3, r3, #23
    965c:	e3530000 	cmp	r3, #0, 0
    9660:	1a000009 	bne	968c <emmc_read+0x40>
    9664:	e1a05000 	mov	r5, r0
    9668:	e1a04002 	mov	r4, r2
    966c:	e1a03000 	mov	r3, r0
    9670:	e3a00000 	mov	r0, #0, 0
    9674:	ebfffe81 	bl	9080 <do_data_command>
    9678:	e3500000 	cmp	r0, #0, 0
    967c:	0a00000a 	beq	96ac <emmc_read+0x60>
    9680:	e1a00004 	mov	r0, r4
    9684:	e28dd00c 	add	sp, sp, #12, 0
    9688:	e8bd8030 	pop	{r4, r5, pc}
    968c:	e59f3030 	ldr	r3, [pc, #48]	; 96c4 <emmc_read+0x78>
    9690:	e58d3000 	str	r3, [sp]
    9694:	e59f302c 	ldr	r3, [pc, #44]	; 96c8 <emmc_read+0x7c>
    9698:	e59f202c 	ldr	r2, [pc, #44]	; 96cc <emmc_read+0x80>
    969c:	e59f102c 	ldr	r1, [pc, #44]	; 96d0 <emmc_read+0x84>
    96a0:	e59f002c 	ldr	r0, [pc, #44]	; 96d4 <emmc_read+0x88>
    96a4:	eb000dca 	bl	cdd4 <printk>
    96a8:	eb000ef9 	bl	d294 <clean_reboot>
    96ac:	e1a02004 	mov	r2, r4
    96b0:	e1a01005 	mov	r1, r5
    96b4:	e59f001c 	ldr	r0, [pc, #28]	; 96d8 <emmc_read+0x8c>
    96b8:	eb000dc5 	bl	cdd4 <printk>
    96bc:	e3e00000 	mvn	r0, #0, 0
    96c0:	eaffffef 	b	9684 <emmc_read+0x38>
    96c4:	0000e2e4 	.word	0x0000e2e4
    96c8:	000002dd 	.word	0x000002dd
    96cc:	0000e464 	.word	0x0000e464
    96d0:	0000e110 	.word	0x0000e110
    96d4:	0000e120 	.word	0x0000e120
    96d8:	0000e2f4 	.word	0x0000e2f4

000096dc <emmc_write>:
    96dc:	e92d4010 	push	{r4, lr}
    96e0:	e24dd008 	sub	sp, sp, #8, 0
    96e4:	e1a04002 	mov	r4, r2
    96e8:	e1a02b82 	lsl	r2, r2, #23
    96ec:	e1a02ba2 	lsr	r2, r2, #23
    96f0:	e3520000 	cmp	r2, #0, 0
    96f4:	1a000008 	bne	971c <emmc_write+0x40>
    96f8:	e1a03000 	mov	r3, r0
    96fc:	e1a02004 	mov	r2, r4
    9700:	e3a00001 	mov	r0, #1, 0
    9704:	ebfffe5d 	bl	9080 <do_data_command>
    9708:	e3500000 	cmp	r0, #0, 0
    970c:	0a00000a 	beq	973c <emmc_write+0x60>
    9710:	e1a00004 	mov	r0, r4
    9714:	e28dd008 	add	sp, sp, #8, 0
    9718:	e8bd8010 	pop	{r4, pc}
    971c:	e59f302c 	ldr	r3, [pc, #44]	; 9750 <emmc_write+0x74>
    9720:	e58d3000 	str	r3, [sp]
    9724:	e3a03e2f 	mov	r3, #752	; 0x2f0
    9728:	e59f2024 	ldr	r2, [pc, #36]	; 9754 <emmc_write+0x78>
    972c:	e59f1024 	ldr	r1, [pc, #36]	; 9758 <emmc_write+0x7c>
    9730:	e59f0024 	ldr	r0, [pc, #36]	; 975c <emmc_write+0x80>
    9734:	eb000da6 	bl	cdd4 <printk>
    9738:	eb000ed5 	bl	d294 <clean_reboot>
    973c:	e1a01000 	mov	r1, r0
    9740:	e59f0018 	ldr	r0, [pc, #24]	; 9760 <emmc_write+0x84>
    9744:	eb000da2 	bl	cdd4 <printk>
    9748:	e3e00000 	mvn	r0, #0, 0
    974c:	eafffff0 	b	9714 <emmc_write+0x38>
    9750:	0000e2e4 	.word	0x0000e2e4
    9754:	0000e470 	.word	0x0000e470
    9758:	0000e110 	.word	0x0000e110
    975c:	0000e120 	.word	0x0000e120
    9760:	0000e320 	.word	0x0000e320

00009764 <emmc_init>:
    9764:	e92d4070 	push	{r4, r5, r6, lr}
    9768:	e3a01000 	mov	r1, #0, 0
    976c:	e3a00022 	mov	r0, #34, 0	; 0x22
    9770:	eb000fd6 	bl	d6d0 <gpio_set_function>
    9774:	e3a01000 	mov	r1, #0, 0
    9778:	e3a00023 	mov	r0, #35, 0	; 0x23
    977c:	eb000fd3 	bl	d6d0 <gpio_set_function>
    9780:	e3a01000 	mov	r1, #0, 0
    9784:	e3a00024 	mov	r0, #36, 0	; 0x24
    9788:	eb000fd0 	bl	d6d0 <gpio_set_function>
    978c:	e3a01000 	mov	r1, #0, 0
    9790:	e3a00025 	mov	r0, #37, 0	; 0x25
    9794:	eb000fcd 	bl	d6d0 <gpio_set_function>
    9798:	e3a01000 	mov	r1, #0, 0
    979c:	e3a00026 	mov	r0, #38, 0	; 0x26
    97a0:	eb000fca 	bl	d6d0 <gpio_set_function>
    97a4:	e3a01000 	mov	r1, #0, 0
    97a8:	e3a00027 	mov	r0, #39, 0	; 0x27
    97ac:	eb000fc7 	bl	d6d0 <gpio_set_function>
    97b0:	e3a01007 	mov	r1, #7, 0
    97b4:	e3a00030 	mov	r0, #48, 0	; 0x30
    97b8:	eb000fc4 	bl	d6d0 <gpio_set_function>
    97bc:	e3a01007 	mov	r1, #7, 0
    97c0:	e3a00031 	mov	r0, #49, 0	; 0x31
    97c4:	eb000fc1 	bl	d6d0 <gpio_set_function>
    97c8:	e3a01007 	mov	r1, #7, 0
    97cc:	e3a00032 	mov	r0, #50, 0	; 0x32
    97d0:	eb000fbe 	bl	d6d0 <gpio_set_function>
    97d4:	e3a01007 	mov	r1, #7, 0
    97d8:	e3a00033 	mov	r0, #51, 0	; 0x33
    97dc:	eb000fbb 	bl	d6d0 <gpio_set_function>
    97e0:	e3a01007 	mov	r1, #7, 0
    97e4:	e3a00034 	mov	r0, #52, 0	; 0x34
    97e8:	eb000fb8 	bl	d6d0 <gpio_set_function>
    97ec:	e59f305c 	ldr	r3, [pc, #92]	; 9850 <emmc_init+0xec>
    97f0:	e3a00000 	mov	r0, #0, 0
    97f4:	e5830004 	str	r0, [r3, #4]
    97f8:	e583000c 	str	r0, [r3, #12]
    97fc:	e5c30000 	strb	r0, [r3]
    9800:	e5830010 	str	r0, [r3, #16]
    9804:	e5c30024 	strb	r0, [r3, #36]	; 0x24
    9808:	e1c302b6 	strh	r0, [r3, #38]	; 0x26
    980c:	e5830028 	str	r0, [r3, #40]	; 0x28
    9810:	e583003c 	str	r0, [r3, #60]	; 0x3c
    9814:	e1a05000 	mov	r5, r0
    9818:	e1a04000 	mov	r4, r0
    981c:	e3550009 	cmp	r5, #9, 0
    9820:	ca000008 	bgt	9848 <emmc_init+0xe4>
    9824:	ebffff41 	bl	9530 <emmc_card_reset>
    9828:	e2504000 	subs	r4, r0, #0, 0
    982c:	1a000005 	bne	9848 <emmc_init+0xe4>
    9830:	e3a00064 	mov	r0, #100, 0	; 0x64
    9834:	eb000f05 	bl	d450 <delay_ms>
    9838:	e59f0014 	ldr	r0, [pc, #20]	; 9854 <emmc_init+0xf0>
    983c:	eb000d64 	bl	cdd4 <printk>
    9840:	e2855001 	add	r5, r5, #1, 0
    9844:	eafffff4 	b	981c <emmc_init+0xb8>
    9848:	e1a00004 	mov	r0, r4
    984c:	e8bd8070 	pop	{r4, r5, r6, pc}
    9850:	000106c0 	.word	0x000106c0
    9854:	0000e33c 	.word	0x0000e33c

00009858 <rpi_clock_hz_set>:
    9858:	e92d4070 	push	{r4, r5, r6, lr}
    985c:	e24dd008 	sub	sp, sp, #8, 0
    9860:	e1a06000 	mov	r6, r0
    9864:	e1a05001 	mov	r5, r1
    9868:	e59f3138 	ldr	r3, [pc, #312]	; 99a8 <rpi_clock_hz_set+0x150>
    986c:	e5933000 	ldr	r3, [r3]
    9870:	e3530000 	cmp	r3, #0, 0
    9874:	0a00002f 	beq	9938 <rpi_clock_hz_set+0xe0>
    9878:	e59f4128 	ldr	r4, [pc, #296]	; 99a8 <rpi_clock_hz_set+0x150>
    987c:	e3a02024 	mov	r2, #36, 0	; 0x24
    9880:	e3a01000 	mov	r1, #0, 0
    9884:	e5940000 	ldr	r0, [r4]
    9888:	eb000d29 	bl	cd34 <memset>
    988c:	e5944000 	ldr	r4, [r4]
    9890:	e3a03024 	mov	r3, #36, 0	; 0x24
    9894:	e5843000 	str	r3, [r4]
    9898:	e3a03000 	mov	r3, #0, 0
    989c:	e5843004 	str	r3, [r4, #4]
    98a0:	e59f2104 	ldr	r2, [pc, #260]	; 99ac <rpi_clock_hz_set+0x154>
    98a4:	e5842008 	str	r2, [r4, #8]
    98a8:	e3a0200c 	mov	r2, #12, 0
    98ac:	e584200c 	str	r2, [r4, #12]
    98b0:	e5843010 	str	r3, [r4, #16]
    98b4:	e5846014 	str	r6, [r4, #20]
    98b8:	e5845018 	str	r5, [r4, #24]
    98bc:	e584301c 	str	r3, [r4, #28]
    98c0:	e5843020 	str	r3, [r4, #32]
    98c4:	e314000f 	tst	r4, #15, 0
    98c8:	1a000020 	bne	9950 <rpi_clock_hz_set+0xf8>
    98cc:	eb000ea4 	bl	d364 <dev_barrier>
    98d0:	e59f00d8 	ldr	r0, [pc, #216]	; 99b0 <rpi_clock_hz_set+0x158>
    98d4:	ebfff9d4 	bl	802c <GET32>
    98d8:	e3500000 	cmp	r0, #0, 0
    98dc:	bafffffb 	blt	98d0 <rpi_clock_hz_set+0x78>
    98e0:	e3841121 	orr	r1, r4, #1073741832	; 0x40000008
    98e4:	e59f00c8 	ldr	r0, [pc, #200]	; 99b4 <rpi_clock_hz_set+0x15c>
    98e8:	ebfff9cd 	bl	8024 <PUT32>
    98ec:	eb000e9c 	bl	d364 <dev_barrier>
    98f0:	eb000e9b 	bl	d364 <dev_barrier>
    98f4:	e59f00b4 	ldr	r0, [pc, #180]	; 99b0 <rpi_clock_hz_set+0x158>
    98f8:	ebfff9cb 	bl	802c <GET32>
    98fc:	e3100101 	tst	r0, #1073741824	; 0x40000000
    9900:	1afffffb 	bne	98f4 <rpi_clock_hz_set+0x9c>
    9904:	e59f00ac 	ldr	r0, [pc, #172]	; 99b8 <rpi_clock_hz_set+0x160>
    9908:	ebfff9c7 	bl	802c <GET32>
    990c:	e200000f 	and	r0, r0, #15, 0
    9910:	e3500008 	cmp	r0, #8, 0
    9914:	1a000015 	bne	9970 <rpi_clock_hz_set+0x118>
    9918:	e5943004 	ldr	r3, [r4, #4]
    991c:	e3530102 	cmp	r3, #-2147483648	; 0x80000000
    9920:	1a000018 	bne	9988 <rpi_clock_hz_set+0x130>
    9924:	e59f307c 	ldr	r3, [pc, #124]	; 99a8 <rpi_clock_hz_set+0x150>
    9928:	e5933000 	ldr	r3, [r3]
    992c:	e5930018 	ldr	r0, [r3, #24]
    9930:	e28dd008 	add	sp, sp, #8, 0
    9934:	e8bd8070 	pop	{r4, r5, r6, pc}
    9938:	e3a01010 	mov	r1, #16, 0
    993c:	e3a00024 	mov	r0, #36, 0	; 0x24
    9940:	eb001049 	bl	da6c <kmalloc_aligned>
    9944:	e59f305c 	ldr	r3, [pc, #92]	; 99a8 <rpi_clock_hz_set+0x150>
    9948:	e5830000 	str	r0, [r3]
    994c:	eaffffc9 	b	9878 <rpi_clock_hz_set+0x20>
    9950:	e59f3064 	ldr	r3, [pc, #100]	; 99bc <rpi_clock_hz_set+0x164>
    9954:	e58d3000 	str	r3, [sp]
    9958:	e3a03042 	mov	r3, #66, 0	; 0x42
    995c:	e59f205c 	ldr	r2, [pc, #92]	; 99c0 <rpi_clock_hz_set+0x168>
    9960:	e59f105c 	ldr	r1, [pc, #92]	; 99c4 <rpi_clock_hz_set+0x16c>
    9964:	e59f005c 	ldr	r0, [pc, #92]	; 99c8 <rpi_clock_hz_set+0x170>
    9968:	eb000d19 	bl	cdd4 <printk>
    996c:	eb000e48 	bl	d294 <clean_reboot>
    9970:	e3a03061 	mov	r3, #97, 0	; 0x61
    9974:	e59f2050 	ldr	r2, [pc, #80]	; 99cc <rpi_clock_hz_set+0x174>
    9978:	e59f1044 	ldr	r1, [pc, #68]	; 99c4 <rpi_clock_hz_set+0x16c>
    997c:	e59f004c 	ldr	r0, [pc, #76]	; 99d0 <rpi_clock_hz_set+0x178>
    9980:	eb000d13 	bl	cdd4 <printk>
    9984:	eb000e42 	bl	d294 <clean_reboot>
    9988:	e5943004 	ldr	r3, [r4, #4]
    998c:	e58d3000 	str	r3, [sp]
    9990:	e3a0306e 	mov	r3, #110, 0	; 0x6e
    9994:	e59f2038 	ldr	r2, [pc, #56]	; 99d4 <rpi_clock_hz_set+0x17c>
    9998:	e59f1024 	ldr	r1, [pc, #36]	; 99c4 <rpi_clock_hz_set+0x16c>
    999c:	e59f0034 	ldr	r0, [pc, #52]	; 99d8 <rpi_clock_hz_set+0x180>
    99a0:	eb000d0b 	bl	cdd4 <printk>
    99a4:	eb000e3a 	bl	d294 <clean_reboot>
    99a8:	00010718 	.word	0x00010718
    99ac:	00038002 	.word	0x00038002
    99b0:	2000b898 	.word	0x2000b898
    99b4:	2000b8a0 	.word	0x2000b8a0
    99b8:	2000b880 	.word	0x2000b880
    99bc:	0000e48c 	.word	0x0000e48c
    99c0:	0000e518 	.word	0x0000e518
    99c4:	0000e47c 	.word	0x0000e47c
    99c8:	0000e120 	.word	0x0000e120
    99cc:	0000e524 	.word	0x0000e524
    99d0:	0000e4a4 	.word	0x0000e4a4
    99d4:	0000e530 	.word	0x0000e530
    99d8:	0000e4ec 	.word	0x0000e4ec

000099dc <cluster_to_lba>:
    99dc:	e3510001 	cmp	r1, #1, 0
    99e0:	9a000004 	bls	99f8 <cluster_to_lba+0x1c>
    99e4:	e5903008 	ldr	r3, [r0, #8]
    99e8:	e2411002 	sub	r1, r1, #2, 0
    99ec:	e590000c 	ldr	r0, [r0, #12]
    99f0:	e0203190 	mla	r0, r0, r1, r3
    99f4:	e12fff1e 	bx	lr
    99f8:	e52de004 	push	{lr}		; (str lr, [sp, #-4]!)
    99fc:	e24dd00c 	sub	sp, sp, #12, 0
    9a00:	e59f3018 	ldr	r3, [pc, #24]	; 9a20 <cluster_to_lba+0x44>
    9a04:	e58d3000 	str	r3, [sp]
    9a08:	e3a03055 	mov	r3, #85, 0	; 0x55
    9a0c:	e59f2010 	ldr	r2, [pc, #16]	; 9a24 <cluster_to_lba+0x48>
    9a10:	e59f1010 	ldr	r1, [pc, #16]	; 9a28 <cluster_to_lba+0x4c>
    9a14:	e59f0010 	ldr	r0, [pc, #16]	; 9a2c <cluster_to_lba+0x50>
    9a18:	eb000ced 	bl	cdd4 <printk>
    9a1c:	eb000e1c 	bl	d294 <clean_reboot>
    9a20:	0000e550 	.word	0x0000e550
    9a24:	0000e7a4 	.word	0x0000e7a4
    9a28:	0000e53c 	.word	0x0000e53c
    9a2c:	0000e120 	.word	0x0000e120

00009a30 <read_cluster_chain>:
    9a30:	e92d41f0 	push	{r4, r5, r6, r7, r8, lr}
    9a34:	e1a05000 	mov	r5, r0
    9a38:	e1a04001 	mov	r4, r1
    9a3c:	e1a06002 	mov	r6, r2
    9a40:	e590200c 	ldr	r2, [r0, #12]
    9a44:	e59f3068 	ldr	r3, [pc, #104]	; 9ab4 <read_cluster_chain+0x84>
    9a48:	e5d3700b 	ldrb	r7, [r3, #11]
    9a4c:	e5d3300c 	ldrb	r3, [r3, #12]
    9a50:	e1877403 	orr	r7, r7, r3, lsl #8
    9a54:	e0070297 	mul	r7, r7, r2
    9a58:	e1a00004 	mov	r0, r4
    9a5c:	eb000760 	bl	b7e4 <fat32_fat_entry_type>
    9a60:	e370028f 	cmn	r0, #-268435448	; 0xf0000008
    9a64:	0a00000a 	beq	9a94 <read_cluster_chain+0x64>
    9a68:	e1a01004 	mov	r1, r4
    9a6c:	e1a00005 	mov	r0, r5
    9a70:	ebffffd9 	bl	99dc <cluster_to_lba>
    9a74:	e1a01000 	mov	r1, r0
    9a78:	e595200c 	ldr	r2, [r5, #12]
    9a7c:	e1a00006 	mov	r0, r6
    9a80:	ebfffaf2 	bl	8650 <pi_sd_read>
    9a84:	e0866007 	add	r6, r6, r7
    9a88:	e5953014 	ldr	r3, [r5, #20]
    9a8c:	e7934104 	ldr	r4, [r3, r4, lsl #2]
    9a90:	eafffff0 	b	9a58 <read_cluster_chain+0x28>
    9a94:	e1a01004 	mov	r1, r4
    9a98:	e1a00005 	mov	r0, r5
    9a9c:	ebffffce 	bl	99dc <cluster_to_lba>
    9aa0:	e1a01000 	mov	r1, r0
    9aa4:	e595200c 	ldr	r2, [r5, #12]
    9aa8:	e1a00006 	mov	r0, r6
    9aac:	ebfffae7 	bl	8650 <pi_sd_read>
    9ab0:	e8bd81f0 	pop	{r4, r5, r6, r7, r8, pc}
    9ab4:	000109dc 	.word	0x000109dc

00009ab8 <dirent_convert>:
    9ab8:	e92d4030 	push	{r4, r5, lr}
    9abc:	e24dd034 	sub	sp, sp, #52, 0	; 0x34
    9ac0:	e1a05000 	mov	r5, r0
    9ac4:	e1a04001 	mov	r4, r1
    9ac8:	e3a0202c 	mov	r2, #44, 0	; 0x2c
    9acc:	e3a01000 	mov	r1, #0, 0
    9ad0:	e28d0004 	add	r0, sp, #4, 0
    9ad4:	eb000c96 	bl	cd34 <memset>
    9ad8:	e5d43014 	ldrb	r3, [r4, #20]
    9adc:	e5d42015 	ldrb	r2, [r4, #21]
    9ae0:	e1832402 	orr	r2, r3, r2, lsl #8
    9ae4:	e5d4301a 	ldrb	r3, [r4, #26]
    9ae8:	e5d4101b 	ldrb	r1, [r4, #27]
    9aec:	e1833401 	orr	r3, r3, r1, lsl #8
    9af0:	e1833802 	orr	r3, r3, r2, lsl #16
    9af4:	e58d3024 	str	r3, [sp, #36]	; 0x24
    9af8:	e5d4300b 	ldrb	r3, [r4, #11]
    9afc:	e3530010 	cmp	r3, #16, 0
    9b00:	13a03000 	movne	r3, #0, 0
    9b04:	03a03001 	moveq	r3, #1, 0
    9b08:	e58d3028 	str	r3, [sp, #40]	; 0x28
    9b0c:	e5d4301c 	ldrb	r3, [r4, #28]
    9b10:	e5d4201d 	ldrb	r2, [r4, #29]
    9b14:	e1833402 	orr	r3, r3, r2, lsl #8
    9b18:	e5d4201e 	ldrb	r2, [r4, #30]
    9b1c:	e1833802 	orr	r3, r3, r2, lsl #16
    9b20:	e5d4201f 	ldrb	r2, [r4, #31]
    9b24:	e1833c02 	orr	r3, r3, r2, lsl #24
    9b28:	e58d302c 	str	r3, [sp, #44]	; 0x2c
    9b2c:	e3a0200b 	mov	r2, #11, 0
    9b30:	e1a01004 	mov	r1, r4
    9b34:	e28d0014 	add	r0, sp, #20, 0
    9b38:	eb000c46 	bl	cc58 <memcpy>
    9b3c:	e28d1004 	add	r1, sp, #4, 0
    9b40:	e1a00004 	mov	r0, r4
    9b44:	eb0007d1 	bl	ba90 <fat32_dirent_name>
    9b48:	e1a0e005 	mov	lr, r5
    9b4c:	e28dc004 	add	ip, sp, #4, 0
    9b50:	e8bc000f 	ldm	ip!, {r0, r1, r2, r3}
    9b54:	e8ae000f 	stmia	lr!, {r0, r1, r2, r3}
    9b58:	e8bc000f 	ldm	ip!, {r0, r1, r2, r3}
    9b5c:	e8ae000f 	stmia	lr!, {r0, r1, r2, r3}
    9b60:	e89c0007 	ldm	ip, {r0, r1, r2}
    9b64:	e88e0007 	stm	lr, {r0, r1, r2}
    9b68:	e1a00005 	mov	r0, r5
    9b6c:	e28dd034 	add	sp, sp, #52, 0	; 0x34
    9b70:	e8bd8030 	pop	{r4, r5, pc}

00009b74 <find_dirent_with_name>:
    9b74:	e92d41f0 	push	{r4, r5, r6, r7, r8, lr}
    9b78:	e24dd020 	sub	sp, sp, #32, 0
    9b7c:	e1a08000 	mov	r8, r0
    9b80:	e1a06001 	mov	r6, r1
    9b84:	e1a07002 	mov	r7, r2
    9b88:	e3a05000 	mov	r5, #0, 0
    9b8c:	e1550006 	cmp	r5, r6
    9b90:	aa000010 	bge	9bd8 <find_dirent_with_name+0x64>
    9b94:	e3a0000b 	mov	r0, #11, 0
    9b98:	eb000f9a 	bl	da08 <kmalloc>
    9b9c:	e1a04000 	mov	r4, r0
    9ba0:	e3a02020 	mov	r2, #32, 0
    9ba4:	e0881285 	add	r1, r8, r5, lsl #5
    9ba8:	e1a0000d 	mov	r0, sp
    9bac:	eb000c29 	bl	cc58 <memcpy>
    9bb0:	e1a01004 	mov	r1, r4
    9bb4:	e1a0000d 	mov	r0, sp
    9bb8:	eb0007b4 	bl	ba90 <fat32_dirent_name>
    9bbc:	e1a01007 	mov	r1, r7
    9bc0:	e1a00004 	mov	r0, r4
    9bc4:	eb000d98 	bl	d22c <strcmp>
    9bc8:	e3500000 	cmp	r0, #0, 0
    9bcc:	0a000002 	beq	9bdc <find_dirent_with_name+0x68>
    9bd0:	e2855001 	add	r5, r5, #1, 0
    9bd4:	eaffffec 	b	9b8c <find_dirent_with_name+0x18>
    9bd8:	e3e05000 	mvn	r5, #0, 0
    9bdc:	e1a00005 	mov	r0, r5
    9be0:	e28dd020 	add	sp, sp, #32, 0
    9be4:	e8bd81f0 	pop	{r4, r5, r6, r7, r8, pc}

00009be8 <fat32_mk>:
    9be8:	e92d4ff0 	push	{r4, r5, r6, r7, r8, r9, sl, fp, lr}
    9bec:	e24dd014 	sub	sp, sp, #20, 0
    9bf0:	e59f31a0 	ldr	r3, [pc, #416]	; 9d98 <fat32_mk+0x1b0>
    9bf4:	e5933000 	ldr	r3, [r3]
    9bf8:	e3530000 	cmp	r3, #0, 0
    9bfc:	1a000055 	bne	9d58 <fat32_mk+0x170>
    9c00:	e1a05000 	mov	r5, r0
    9c04:	e1a04001 	mov	r4, r1
    9c08:	e5d13008 	ldrb	r3, [r1, #8]
    9c0c:	e5d11009 	ldrb	r1, [r1, #9]
    9c10:	e1833401 	orr	r3, r3, r1, lsl #8
    9c14:	e5d4100a 	ldrb	r1, [r4, #10]
    9c18:	e1833801 	orr	r3, r3, r1, lsl #16
    9c1c:	e5d4100b 	ldrb	r1, [r4, #11]
    9c20:	e59f6174 	ldr	r6, [pc, #372]	; 9d9c <fat32_mk+0x1b4>
    9c24:	e3a02001 	mov	r2, #1, 0
    9c28:	e1831c01 	orr	r1, r3, r1, lsl #24
    9c2c:	e1a00006 	mov	r0, r6
    9c30:	ebfffa86 	bl	8650 <pi_sd_read>
    9c34:	e1a00006 	mov	r0, r6
    9c38:	eb00051b 	bl	b0ac <fat32_volume_id_check>
    9c3c:	e5d63030 	ldrb	r3, [r6, #48]	; 0x30
    9c40:	e5d62031 	ldrb	r2, [r6, #49]	; 0x31
    9c44:	e1833402 	orr	r3, r3, r2, lsl #8
    9c48:	e3530001 	cmp	r3, #1, 0
    9c4c:	1a000049 	bne	9d78 <fat32_mk+0x190>
    9c50:	e5d40008 	ldrb	r0, [r4, #8]
    9c54:	e5d43009 	ldrb	r3, [r4, #9]
    9c58:	e1800403 	orr	r0, r0, r3, lsl #8
    9c5c:	e5d4300a 	ldrb	r3, [r4, #10]
    9c60:	e1800803 	orr	r0, r0, r3, lsl #16
    9c64:	e5d4300b 	ldrb	r3, [r4, #11]
    9c68:	e1800c03 	orr	r0, r0, r3, lsl #24
    9c6c:	e3a01001 	mov	r1, #1, 0
    9c70:	e0800001 	add	r0, r0, r1
    9c74:	ebfffac7 	bl	8798 <pi_sec_read>
    9c78:	eb000682 	bl	b688 <fat32_fsinfo_check>
    9c7c:	e5d47008 	ldrb	r7, [r4, #8]
    9c80:	e5d43009 	ldrb	r3, [r4, #9]
    9c84:	e1877403 	orr	r7, r7, r3, lsl #8
    9c88:	e5d4300a 	ldrb	r3, [r4, #10]
    9c8c:	e1877803 	orr	r7, r7, r3, lsl #16
    9c90:	e5d4300b 	ldrb	r3, [r4, #11]
    9c94:	e1877c03 	orr	r7, r7, r3, lsl #24
    9c98:	e59f40fc 	ldr	r4, [pc, #252]	; 9d9c <fat32_mk+0x1b4>
    9c9c:	e5d4900e 	ldrb	r9, [r4, #14]
    9ca0:	e5d4300f 	ldrb	r3, [r4, #15]
    9ca4:	e1899403 	orr	r9, r9, r3, lsl #8
    9ca8:	e0899007 	add	r9, r9, r7
    9cac:	e5d4a010 	ldrb	sl, [r4, #16]
    9cb0:	e5d46024 	ldrb	r6, [r4, #36]	; 0x24
    9cb4:	e5d43025 	ldrb	r3, [r4, #37]	; 0x25
    9cb8:	e1866403 	orr	r6, r6, r3, lsl #8
    9cbc:	e5d43026 	ldrb	r3, [r4, #38]	; 0x26
    9cc0:	e1866803 	orr	r6, r6, r3, lsl #16
    9cc4:	e5d43027 	ldrb	r3, [r4, #39]	; 0x27
    9cc8:	e1866c03 	orr	r6, r6, r3, lsl #24
    9ccc:	e02a9a96 	mla	sl, r6, sl, r9
    9cd0:	e5d4b00d 	ldrb	fp, [r4, #13]
    9cd4:	e5d4802c 	ldrb	r8, [r4, #44]	; 0x2c
    9cd8:	e5d4302d 	ldrb	r3, [r4, #45]	; 0x2d
    9cdc:	e1888403 	orr	r8, r8, r3, lsl #8
    9ce0:	e5d4302e 	ldrb	r3, [r4, #46]	; 0x2e
    9ce4:	e1888803 	orr	r8, r8, r3, lsl #16
    9ce8:	e5d4302f 	ldrb	r3, [r4, #47]	; 0x2f
    9cec:	e1888c03 	orr	r8, r8, r3, lsl #24
    9cf0:	e1a00486 	lsl	r0, r6, #9
    9cf4:	eb000f43 	bl	da08 <kmalloc>
    9cf8:	e58d000c 	str	r0, [sp, #12]
    9cfc:	e5d43024 	ldrb	r3, [r4, #36]	; 0x24
    9d00:	e5d42025 	ldrb	r2, [r4, #37]	; 0x25
    9d04:	e1833402 	orr	r3, r3, r2, lsl #8
    9d08:	e5d42026 	ldrb	r2, [r4, #38]	; 0x26
    9d0c:	e1833802 	orr	r3, r3, r2, lsl #16
    9d10:	e5d42027 	ldrb	r2, [r4, #39]	; 0x27
    9d14:	e1832c02 	orr	r2, r3, r2, lsl #24
    9d18:	e1a01009 	mov	r1, r9
    9d1c:	ebfffa4b 	bl	8650 <pi_sd_read>
    9d20:	e5857000 	str	r7, [r5]
    9d24:	e5859004 	str	r9, [r5, #4]
    9d28:	e585a008 	str	sl, [r5, #8]
    9d2c:	e585b00c 	str	fp, [r5, #12]
    9d30:	e5858010 	str	r8, [r5, #16]
    9d34:	e59d300c 	ldr	r3, [sp, #12]
    9d38:	e5853014 	str	r3, [r5, #20]
    9d3c:	e5856018 	str	r6, [r5, #24]
    9d40:	e59f3050 	ldr	r3, [pc, #80]	; 9d98 <fat32_mk+0x1b0>
    9d44:	e3a02001 	mov	r2, #1, 0
    9d48:	e5832000 	str	r2, [r3]
    9d4c:	e1a00005 	mov	r0, r5
    9d50:	e28dd014 	add	sp, sp, #20, 0
    9d54:	e8bd8ff0 	pop	{r4, r5, r6, r7, r8, r9, sl, fp, pc}
    9d58:	e59f3040 	ldr	r3, [pc, #64]	; 9da0 <fat32_mk+0x1b8>
    9d5c:	e58d3000 	str	r3, [sp]
    9d60:	e3a03010 	mov	r3, #16, 0
    9d64:	e59f2038 	ldr	r2, [pc, #56]	; 9da4 <fat32_mk+0x1bc>
    9d68:	e59f1038 	ldr	r1, [pc, #56]	; 9da8 <fat32_mk+0x1c0>
    9d6c:	e59f0038 	ldr	r0, [pc, #56]	; 9dac <fat32_mk+0x1c4>
    9d70:	eb000c17 	bl	cdd4 <printk>
    9d74:	eb000d46 	bl	d294 <clean_reboot>
    9d78:	e59f3030 	ldr	r3, [pc, #48]	; 9db0 <fat32_mk+0x1c8>
    9d7c:	e58d3000 	str	r3, [sp]
    9d80:	e3a0301b 	mov	r3, #27, 0
    9d84:	e59f2018 	ldr	r2, [pc, #24]	; 9da4 <fat32_mk+0x1bc>
    9d88:	e59f1018 	ldr	r1, [pc, #24]	; 9da8 <fat32_mk+0x1c0>
    9d8c:	e59f0020 	ldr	r0, [pc, #32]	; 9db4 <fat32_mk+0x1cc>
    9d90:	eb000c0f 	bl	cdd4 <printk>
    9d94:	eb000d3e 	bl	d294 <clean_reboot>
    9d98:	0001071c 	.word	0x0001071c
    9d9c:	000109dc 	.word	0x000109dc
    9da0:	0000e5b8 	.word	0x0000e5b8
    9da4:	0000e7b4 	.word	0x0000e7b4
    9da8:	0000e53c 	.word	0x0000e53c
    9dac:	0000e564 	.word	0x0000e564
    9db0:	0000e5c0 	.word	0x0000e5c0
    9db4:	0000e120 	.word	0x0000e120

00009db8 <fat32_get_root>:
    9db8:	e59f3070 	ldr	r3, [pc, #112]	; 9e30 <fat32_get_root+0x78>
    9dbc:	e5933000 	ldr	r3, [r3]
    9dc0:	e3530000 	cmp	r3, #0, 0
    9dc4:	0a00000f 	beq	9e08 <fat32_get_root+0x50>
    9dc8:	e5911010 	ldr	r1, [r1, #16]
    9dcc:	e3a03000 	mov	r3, #0, 0
    9dd0:	e1a02000 	mov	r2, r0
    9dd4:	e4823004 	str	r3, [r2], #4
    9dd8:	e5803004 	str	r3, [r0, #4]
    9ddc:	e5823004 	str	r3, [r2, #4]
    9de0:	e5823008 	str	r3, [r2, #8]
    9de4:	e5803010 	str	r3, [r0, #16]
    9de8:	e5803014 	str	r3, [r0, #20]
    9dec:	e5803018 	str	r3, [r0, #24]
    9df0:	e580301c 	str	r3, [r0, #28]
    9df4:	e5801020 	str	r1, [r0, #32]
    9df8:	e3a02001 	mov	r2, #1, 0
    9dfc:	e5802024 	str	r2, [r0, #36]	; 0x24
    9e00:	e5803028 	str	r3, [r0, #40]	; 0x28
    9e04:	e12fff1e 	bx	lr
    9e08:	e52de004 	push	{lr}		; (str lr, [sp, #-4]!)
    9e0c:	e24dd00c 	sub	sp, sp, #12, 0
    9e10:	e59f301c 	ldr	r3, [pc, #28]	; 9e34 <fat32_get_root+0x7c>
    9e14:	e58d3000 	str	r3, [sp]
    9e18:	e3a03061 	mov	r3, #97, 0	; 0x61
    9e1c:	e59f2014 	ldr	r2, [pc, #20]	; 9e38 <fat32_get_root+0x80>
    9e20:	e59f1014 	ldr	r1, [pc, #20]	; 9e3c <fat32_get_root+0x84>
    9e24:	e59f0014 	ldr	r0, [pc, #20]	; 9e40 <fat32_get_root+0x88>
    9e28:	eb000be9 	bl	cdd4 <printk>
    9e2c:	eb000d18 	bl	d294 <clean_reboot>
    9e30:	0001071c 	.word	0x0001071c
    9e34:	0000dd78 	.word	0x0000dd78
    9e38:	0000e7c0 	.word	0x0000e7c0
    9e3c:	0000e53c 	.word	0x0000e53c
    9e40:	0000e5e0 	.word	0x0000e5e0

00009e44 <get_cluster_chain_length>:
    9e44:	e92d4070 	push	{r4, r5, r6, lr}
    9e48:	e1a06000 	mov	r6, r0
    9e4c:	e1a04001 	mov	r4, r1
    9e50:	e3a05001 	mov	r5, #1, 0
    9e54:	e1a00004 	mov	r0, r4
    9e58:	eb000661 	bl	b7e4 <fat32_fat_entry_type>
    9e5c:	e370028f 	cmn	r0, #-268435448	; 0xf0000008
    9e60:	12855001 	addne	r5, r5, #1, 0
    9e64:	15963014 	ldrne	r3, [r6, #20]
    9e68:	17934104 	ldrne	r4, [r3, r4, lsl #2]
    9e6c:	1afffff8 	bne	9e54 <get_cluster_chain_length+0x10>
    9e70:	e1a00005 	mov	r0, r5
    9e74:	e8bd8070 	pop	{r4, r5, r6, pc}

00009e78 <get_dirents>:
    9e78:	e92d41f0 	push	{r4, r5, r6, r7, r8, lr}
    9e7c:	e1a05000 	mov	r5, r0
    9e80:	e1a08001 	mov	r8, r1
    9e84:	e1a07002 	mov	r7, r2
    9e88:	ebffffed 	bl	9e44 <get_cluster_chain_length>
    9e8c:	e1a04000 	mov	r4, r0
    9e90:	e595300c 	ldr	r3, [r5, #12]
    9e94:	e0030390 	mul	r3, r0, r3
    9e98:	e59f203c 	ldr	r2, [pc, #60]	; 9edc <get_dirents+0x64>
    9e9c:	e5d2000b 	ldrb	r0, [r2, #11]
    9ea0:	e5d2200c 	ldrb	r2, [r2, #12]
    9ea4:	e1800402 	orr	r0, r0, r2, lsl #8
    9ea8:	e0000390 	mul	r0, r0, r3
    9eac:	eb000ed5 	bl	da08 <kmalloc>
    9eb0:	e1a06000 	mov	r6, r0
    9eb4:	e1a02000 	mov	r2, r0
    9eb8:	e1a01008 	mov	r1, r8
    9ebc:	e1a00005 	mov	r0, r5
    9ec0:	ebfffeda 	bl	9a30 <read_cluster_chain>
    9ec4:	e595000c 	ldr	r0, [r5, #12]
    9ec8:	e0040094 	mul	r4, r4, r0
    9ecc:	e1a04204 	lsl	r4, r4, #4
    9ed0:	e5874000 	str	r4, [r7]
    9ed4:	e1a00006 	mov	r0, r6
    9ed8:	e8bd81f0 	pop	{r4, r5, r6, r7, r8, pc}
    9edc:	000109dc 	.word	0x000109dc

00009ee0 <read_cur_cluster>:
    9ee0:	e92d4070 	push	{r4, r5, r6, lr}
    9ee4:	e1a04000 	mov	r4, r0
    9ee8:	e1a05001 	mov	r5, r1
    9eec:	e1a06002 	mov	r6, r2
    9ef0:	ebfffeb9 	bl	99dc <cluster_to_lba>
    9ef4:	e1a01000 	mov	r1, r0
    9ef8:	e594200c 	ldr	r2, [r4, #12]
    9efc:	e1a00006 	mov	r0, r6
    9f00:	ebfff9d2 	bl	8650 <pi_sd_read>
    9f04:	e5943014 	ldr	r3, [r4, #20]
    9f08:	e7930105 	ldr	r0, [r3, r5, lsl #2]
    9f0c:	e8bd8070 	pop	{r4, r5, r6, pc}

00009f10 <fat32_readdir>:
    9f10:	e92d47f0 	push	{r4, r5, r6, r7, r8, r9, sl, lr}
    9f14:	e24dd060 	sub	sp, sp, #96, 0	; 0x60
    9f18:	e1a03002 	mov	r3, r2
    9f1c:	e59f212c 	ldr	r2, [pc, #300]	; a050 <fat32_readdir+0x140>
    9f20:	e5922000 	ldr	r2, [r2]
    9f24:	e3520000 	cmp	r2, #0, 0
    9f28:	0a000012 	beq	9f78 <fat32_readdir+0x68>
    9f2c:	e1a06000 	mov	r6, r0
    9f30:	e1a00001 	mov	r0, r1
    9f34:	e5932024 	ldr	r2, [r3, #36]	; 0x24
    9f38:	e3520000 	cmp	r2, #0, 0
    9f3c:	0a000015 	beq	9f98 <fat32_readdir+0x88>
    9f40:	e28d205c 	add	r2, sp, #92, 0	; 0x5c
    9f44:	e5931020 	ldr	r1, [r3, #32]
    9f48:	ebffffca 	bl	9e78 <get_dirents>
    9f4c:	e1a05000 	mov	r5, r0
    9f50:	e59d005c 	ldr	r0, [sp, #92]	; 0x5c
    9f54:	e0803100 	add	r3, r0, r0, lsl #2
    9f58:	e0800083 	add	r0, r0, r3, lsl #1
    9f5c:	e1a00100 	lsl	r0, r0, #2
    9f60:	eb000ea8 	bl	da08 <kmalloc>
    9f64:	e1a08000 	mov	r8, r0
    9f68:	e3a04000 	mov	r4, #0, 0
    9f6c:	e1a07004 	mov	r7, r4
    9f70:	e1a09004 	mov	r9, r4
    9f74:	ea000010 	b	9fbc <fat32_readdir+0xac>
    9f78:	e59f30d4 	ldr	r3, [pc, #212]	; a054 <fat32_readdir+0x144>
    9f7c:	e58d3000 	str	r3, [sp]
    9f80:	e3a030c0 	mov	r3, #192, 0	; 0xc0
    9f84:	e59f20cc 	ldr	r2, [pc, #204]	; a058 <fat32_readdir+0x148>
    9f88:	e59f10cc 	ldr	r1, [pc, #204]	; a05c <fat32_readdir+0x14c>
    9f8c:	e59f00cc 	ldr	r0, [pc, #204]	; a060 <fat32_readdir+0x150>
    9f90:	eb000b8f 	bl	cdd4 <printk>
    9f94:	eb000cbe 	bl	d294 <clean_reboot>
    9f98:	e59f30c4 	ldr	r3, [pc, #196]	; a064 <fat32_readdir+0x154>
    9f9c:	e58d3000 	str	r3, [sp]
    9fa0:	e3a030c1 	mov	r3, #193, 0	; 0xc1
    9fa4:	e59f20ac 	ldr	r2, [pc, #172]	; a058 <fat32_readdir+0x148>
    9fa8:	e59f10ac 	ldr	r1, [pc, #172]	; a05c <fat32_readdir+0x14c>
    9fac:	e59f00b4 	ldr	r0, [pc, #180]	; a068 <fat32_readdir+0x158>
    9fb0:	eb000b87 	bl	cdd4 <printk>
    9fb4:	eb000cb6 	bl	d294 <clean_reboot>
    9fb8:	e2844001 	add	r4, r4, #1, 0
    9fbc:	e59d305c 	ldr	r3, [sp, #92]	; 0x5c
    9fc0:	e1530004 	cmp	r3, r4
    9fc4:	9a00001c 	bls	a03c <fat32_readdir+0x12c>
    9fc8:	e3a02020 	mov	r2, #32, 0
    9fcc:	e0851284 	add	r1, r5, r4, lsl #5
    9fd0:	e28d003c 	add	r0, sp, #60, 0	; 0x3c
    9fd4:	eb000b1f 	bl	cc58 <memcpy>
    9fd8:	e5dd3047 	ldrb	r3, [sp, #71]	; 0x47
    9fdc:	e203200f 	and	r2, r3, #15, 0
    9fe0:	e352000f 	cmp	r2, #15, 0
    9fe4:	0afffff3 	beq	9fb8 <fat32_readdir+0xa8>
    9fe8:	e3130008 	tst	r3, #8, 0
    9fec:	1afffff1 	bne	9fb8 <fat32_readdir+0xa8>
    9ff0:	e3530000 	cmp	r3, #0, 0
    9ff4:	0affffef 	beq	9fb8 <fat32_readdir+0xa8>
    9ff8:	e087c107 	add	ip, r7, r7, lsl #2
    9ffc:	e087c08c 	add	ip, r7, ip, lsl #1
    a000:	e088a10c 	add	sl, r8, ip, lsl #2
    a004:	e28d103c 	add	r1, sp, #60, 0	; 0x3c
    a008:	e28d0008 	add	r0, sp, #8, 0
    a00c:	ebfffea9 	bl	9ab8 <dirent_convert>
    a010:	e1a0c00a 	mov	ip, sl
    a014:	e28de008 	add	lr, sp, #8, 0
    a018:	e8be000f 	ldm	lr!, {r0, r1, r2, r3}
    a01c:	e8ac000f 	stmia	ip!, {r0, r1, r2, r3}
    a020:	e8be000f 	ldm	lr!, {r0, r1, r2, r3}
    a024:	e8ac000f 	stmia	ip!, {r0, r1, r2, r3}
    a028:	e89e0007 	ldm	lr, {r0, r1, r2}
    a02c:	e88c0007 	stm	ip, {r0, r1, r2}
    a030:	e2877001 	add	r7, r7, #1, 0
    a034:	e2899001 	add	r9, r9, #1, 0
    a038:	eaffffde 	b	9fb8 <fat32_readdir+0xa8>
    a03c:	e5868000 	str	r8, [r6]
    a040:	e5869004 	str	r9, [r6, #4]
    a044:	e1a00006 	mov	r0, r6
    a048:	e28dd060 	add	sp, sp, #96, 0	; 0x60
    a04c:	e8bd87f0 	pop	{r4, r5, r6, r7, r8, r9, sl, pc}
    a050:	0001071c 	.word	0x0001071c
    a054:	0000dd78 	.word	0x0000dd78
    a058:	0000e7d0 	.word	0x0000e7d0
    a05c:	0000e53c 	.word	0x0000e53c
    a060:	0000e5e0 	.word	0x0000e5e0
    a064:	0000e66c 	.word	0x0000e66c
    a068:	0000e624 	.word	0x0000e624

0000a06c <fat32_stat>:
    a06c:	e92d4070 	push	{r4, r5, r6, lr}
    a070:	e24dd040 	sub	sp, sp, #64, 0	; 0x40
    a074:	e59f30cc 	ldr	r3, [pc, #204]	; a148 <fat32_stat+0xdc>
    a078:	e5933000 	ldr	r3, [r3]
    a07c:	e3530000 	cmp	r3, #0, 0
    a080:	0a00001e 	beq	a100 <fat32_stat+0x94>
    a084:	e1a04002 	mov	r4, r2
    a088:	e5913024 	ldr	r3, [r1, #36]	; 0x24
    a08c:	e3530000 	cmp	r3, #0, 0
    a090:	0a000022 	beq	a120 <fat32_stat+0xb4>
    a094:	e28d203c 	add	r2, sp, #60, 0	; 0x3c
    a098:	e5911020 	ldr	r1, [r1, #32]
    a09c:	ebffff75 	bl	9e78 <get_dirents>
    a0a0:	e1a06000 	mov	r6, r0
    a0a4:	e1a02004 	mov	r2, r4
    a0a8:	e59d103c 	ldr	r1, [sp, #60]	; 0x3c
    a0ac:	ebfffeb0 	bl	9b74 <find_dirent_with_name>
    a0b0:	e1a04000 	mov	r4, r0
    a0b4:	e3700001 	cmn	r0, #1, 0
    a0b8:	0a000020 	beq	a140 <fat32_stat+0xd4>
    a0bc:	e3a0002c 	mov	r0, #44, 0	; 0x2c
    a0c0:	eb000e50 	bl	da08 <kmalloc>
    a0c4:	e1a05000 	mov	r5, r0
    a0c8:	e0861284 	add	r1, r6, r4, lsl #5
    a0cc:	e28d0008 	add	r0, sp, #8, 0
    a0d0:	ebfffe78 	bl	9ab8 <dirent_convert>
    a0d4:	e1a0e005 	mov	lr, r5
    a0d8:	e28dc008 	add	ip, sp, #8, 0
    a0dc:	e8bc000f 	ldm	ip!, {r0, r1, r2, r3}
    a0e0:	e8ae000f 	stmia	lr!, {r0, r1, r2, r3}
    a0e4:	e8bc000f 	ldm	ip!, {r0, r1, r2, r3}
    a0e8:	e8ae000f 	stmia	lr!, {r0, r1, r2, r3}
    a0ec:	e89c0007 	ldm	ip, {r0, r1, r2}
    a0f0:	e88e0007 	stm	lr, {r0, r1, r2}
    a0f4:	e1a00005 	mov	r0, r5
    a0f8:	e28dd040 	add	sp, sp, #64, 0	; 0x40
    a0fc:	e8bd8070 	pop	{r4, r5, r6, pc}
    a100:	e59f3044 	ldr	r3, [pc, #68]	; a14c <fat32_stat+0xe0>
    a104:	e58d3000 	str	r3, [sp]
    a108:	e3a030f5 	mov	r3, #245, 0	; 0xf5
    a10c:	e59f203c 	ldr	r2, [pc, #60]	; a150 <fat32_stat+0xe4>
    a110:	e59f103c 	ldr	r1, [pc, #60]	; a154 <fat32_stat+0xe8>
    a114:	e59f003c 	ldr	r0, [pc, #60]	; a158 <fat32_stat+0xec>
    a118:	eb000b2d 	bl	cdd4 <printk>
    a11c:	eb000c5c 	bl	d294 <clean_reboot>
    a120:	e59f3034 	ldr	r3, [pc, #52]	; a15c <fat32_stat+0xf0>
    a124:	e58d3000 	str	r3, [sp]
    a128:	e3a030f6 	mov	r3, #246, 0	; 0xf6
    a12c:	e59f201c 	ldr	r2, [pc, #28]	; a150 <fat32_stat+0xe4>
    a130:	e59f101c 	ldr	r1, [pc, #28]	; a154 <fat32_stat+0xe8>
    a134:	e59f0024 	ldr	r0, [pc, #36]	; a160 <fat32_stat+0xf4>
    a138:	eb000b25 	bl	cdd4 <printk>
    a13c:	eb000c54 	bl	d294 <clean_reboot>
    a140:	e3a05000 	mov	r5, #0, 0
    a144:	eaffffea 	b	a0f4 <fat32_stat+0x88>
    a148:	0001071c 	.word	0x0001071c
    a14c:	0000dd78 	.word	0x0000dd78
    a150:	0000e7e0 	.word	0x0000e7e0
    a154:	0000e53c 	.word	0x0000e53c
    a158:	0000e5e0 	.word	0x0000e5e0
    a15c:	0000e6d0 	.word	0x0000e6d0
    a160:	0000e680 	.word	0x0000e680

0000a164 <fat32_read_one>:
    a164:	e92d43f0 	push	{r4, r5, r6, r7, r8, r9, lr}
    a168:	e24dd00c 	sub	sp, sp, #12, 0
    a16c:	e1a08000 	mov	r8, r0
    a170:	e1a09002 	mov	r9, r2
    a174:	e1a06003 	mov	r6, r3
    a178:	e590400c 	ldr	r4, [r0, #12]
    a17c:	e59f3068 	ldr	r3, [pc, #104]	; a1ec <fat32_read_one+0x88>
    a180:	e5d3100b 	ldrb	r1, [r3, #11]
    a184:	e5d3300c 	ldrb	r3, [r3, #12]
    a188:	e1811403 	orr	r1, r1, r3, lsl #8
    a18c:	e0040491 	mul	r4, r1, r4
    a190:	e2847004 	add	r7, r4, #4, 0
    a194:	e1a00007 	mov	r0, r7
    a198:	eb000e1a 	bl	da08 <kmalloc>
    a19c:	e1a05000 	mov	r5, r0
    a1a0:	e2802004 	add	r2, r0, #4, 0
    a1a4:	e1a01009 	mov	r1, r9
    a1a8:	e1a00008 	mov	r0, r8
    a1ac:	ebffff4b 	bl	9ee0 <read_cur_cluster>
    a1b0:	e58d0004 	str	r0, [sp, #4]
    a1b4:	e3a02004 	mov	r2, #4, 0
    a1b8:	e08d1002 	add	r1, sp, r2
    a1bc:	e1a00005 	mov	r0, r5
    a1c0:	eb000aa4 	bl	cc58 <memcpy>
    a1c4:	e1540006 	cmp	r4, r6
    a1c8:	21a04006 	movcs	r4, r6
    a1cc:	e3a0000c 	mov	r0, #12, 0
    a1d0:	eb000e0c 	bl	da08 <kmalloc>
    a1d4:	e2844004 	add	r4, r4, #4, 0
    a1d8:	e5805000 	str	r5, [r0]
    a1dc:	e5807004 	str	r7, [r0, #4]
    a1e0:	e5804008 	str	r4, [r0, #8]
    a1e4:	e28dd00c 	add	sp, sp, #12, 0
    a1e8:	e8bd83f0 	pop	{r4, r5, r6, r7, r8, r9, pc}
    a1ec:	000109dc 	.word	0x000109dc

0000a1f0 <fat32_read>:
    a1f0:	e92d40f0 	push	{r4, r5, r6, r7, lr}
    a1f4:	e24dd00c 	sub	sp, sp, #12, 0
    a1f8:	e59f30d4 	ldr	r3, [pc, #212]	; a2d4 <fat32_read+0xe4>
    a1fc:	e5933000 	ldr	r3, [r3]
    a200:	e3530000 	cmp	r3, #0, 0
    a204:	0a00001d 	beq	a280 <fat32_read+0x90>
    a208:	e1a05000 	mov	r5, r0
    a20c:	e5913024 	ldr	r3, [r1, #36]	; 0x24
    a210:	e3530000 	cmp	r3, #0, 0
    a214:	0a000021 	beq	a2a0 <fat32_read+0xb0>
    a218:	ebffff93 	bl	a06c <fat32_stat>
    a21c:	e1a06000 	mov	r6, r0
    a220:	e5901020 	ldr	r1, [r0, #32]
    a224:	e1a00005 	mov	r0, r5
    a228:	ebffff05 	bl	9e44 <get_cluster_chain_length>
    a22c:	e595400c 	ldr	r4, [r5, #12]
    a230:	e0000490 	mul	r0, r0, r4
    a234:	e59f309c 	ldr	r3, [pc, #156]	; a2d8 <fat32_read+0xe8>
    a238:	e5d3400b 	ldrb	r4, [r3, #11]
    a23c:	e5d3300c 	ldrb	r3, [r3, #12]
    a240:	e1844403 	orr	r4, r4, r3, lsl #8
    a244:	e0040094 	mul	r4, r4, r0
    a248:	e1a00004 	mov	r0, r4
    a24c:	eb000ded 	bl	da08 <kmalloc>
    a250:	e1a07000 	mov	r7, r0
    a254:	e5963028 	ldr	r3, [r6, #40]	; 0x28
    a258:	e3530000 	cmp	r3, #0, 0
    a25c:	1a000017 	bne	a2c0 <fat32_read+0xd0>
    a260:	e3a0000c 	mov	r0, #12, 0
    a264:	eb000de7 	bl	da08 <kmalloc>
    a268:	e5962028 	ldr	r2, [r6, #40]	; 0x28
    a26c:	e5807000 	str	r7, [r0]
    a270:	e5804004 	str	r4, [r0, #4]
    a274:	e5802008 	str	r2, [r0, #8]
    a278:	e28dd00c 	add	sp, sp, #12, 0
    a27c:	e8bd80f0 	pop	{r4, r5, r6, r7, pc}
    a280:	e59f3054 	ldr	r3, [pc, #84]	; a2dc <fat32_read+0xec>
    a284:	e58d3000 	str	r3, [sp]
    a288:	e59f3050 	ldr	r3, [pc, #80]	; a2e0 <fat32_read+0xf0>
    a28c:	e59f2050 	ldr	r2, [pc, #80]	; a2e4 <fat32_read+0xf4>
    a290:	e59f1050 	ldr	r1, [pc, #80]	; a2e8 <fat32_read+0xf8>
    a294:	e59f0050 	ldr	r0, [pc, #80]	; a2ec <fat32_read+0xfc>
    a298:	eb000acd 	bl	cdd4 <printk>
    a29c:	eb000bfc 	bl	d294 <clean_reboot>
    a2a0:	e59f3048 	ldr	r3, [pc, #72]	; a2f0 <fat32_read+0x100>
    a2a4:	e58d3000 	str	r3, [sp]
    a2a8:	e59f3044 	ldr	r3, [pc, #68]	; a2f4 <fat32_read+0x104>
    a2ac:	e59f2030 	ldr	r2, [pc, #48]	; a2e4 <fat32_read+0xf4>
    a2b0:	e59f1030 	ldr	r1, [pc, #48]	; a2e8 <fat32_read+0xf8>
    a2b4:	e59f003c 	ldr	r0, [pc, #60]	; a2f8 <fat32_read+0x108>
    a2b8:	eb000ac5 	bl	cdd4 <printk>
    a2bc:	eb000bf4 	bl	d294 <clean_reboot>
    a2c0:	e1a02000 	mov	r2, r0
    a2c4:	e5961020 	ldr	r1, [r6, #32]
    a2c8:	e1a00005 	mov	r0, r5
    a2cc:	ebfffdd7 	bl	9a30 <read_cluster_chain>
    a2d0:	eaffffe2 	b	a260 <fat32_read+0x70>
    a2d4:	0001071c 	.word	0x0001071c
    a2d8:	000109dc 	.word	0x000109dc
    a2dc:	0000dd78 	.word	0x0000dd78
    a2e0:	00000122 	.word	0x00000122
    a2e4:	0000e7ec 	.word	0x0000e7ec
    a2e8:	0000e53c 	.word	0x0000e53c
    a2ec:	0000e5e0 	.word	0x0000e5e0
    a2f0:	0000e6d0 	.word	0x0000e6d0
    a2f4:	00000123 	.word	0x00000123
    a2f8:	0000e6e4 	.word	0x0000e6e4

0000a2fc <fat32_rename>:
    a2fc:	e92d4030 	push	{r4, r5, lr}
    a300:	e24dd00c 	sub	sp, sp, #12, 0
    a304:	e1a04003 	mov	r4, r3
    a308:	e59f307c 	ldr	r3, [pc, #124]	; a38c <fat32_rename+0x90>
    a30c:	e5933000 	ldr	r3, [r3]
    a310:	e3530000 	cmp	r3, #0, 0
    a314:	0a00000e 	beq	a354 <fat32_rename+0x58>
    a318:	e1a05002 	mov	r5, r2
    a31c:	e59f106c 	ldr	r1, [pc, #108]	; a390 <fat32_rename+0x94>
    a320:	e59f006c 	ldr	r0, [pc, #108]	; a394 <fat32_rename+0x98>
    a324:	eb000aaa 	bl	cdd4 <printk>
    a328:	e1a02004 	mov	r2, r4
    a32c:	e1a01005 	mov	r1, r5
    a330:	e59f0060 	ldr	r0, [pc, #96]	; a398 <fat32_rename+0x9c>
    a334:	eb000aa6 	bl	cdd4 <printk>
    a338:	e1a00004 	mov	r0, r4
    a33c:	eb0005da 	bl	baac <fat32_is_valid_name>
    a340:	e3500000 	cmp	r0, #0, 0
    a344:	1a00000a 	bne	a374 <fat32_rename+0x78>
    a348:	e3a00000 	mov	r0, #0, 0
    a34c:	e28dd00c 	add	sp, sp, #12, 0
    a350:	e8bd8030 	pop	{r4, r5, pc}
    a354:	e59f3040 	ldr	r3, [pc, #64]	; a39c <fat32_rename+0xa0>
    a358:	e58d3000 	str	r3, [sp]
    a35c:	e3a03f61 	mov	r3, #388	; 0x184
    a360:	e59f2028 	ldr	r2, [pc, #40]	; a390 <fat32_rename+0x94>
    a364:	e59f1034 	ldr	r1, [pc, #52]	; a3a0 <fat32_rename+0xa4>
    a368:	e59f0034 	ldr	r0, [pc, #52]	; a3a4 <fat32_rename+0xa8>
    a36c:	eb000a98 	bl	cdd4 <printk>
    a370:	eb000bc7 	bl	d294 <clean_reboot>
    a374:	e59f302c 	ldr	r3, [pc, #44]	; a3a8 <fat32_rename+0xac>
    a378:	e59f2010 	ldr	r2, [pc, #16]	; a390 <fat32_rename+0x94>
    a37c:	e59f101c 	ldr	r1, [pc, #28]	; a3a0 <fat32_rename+0xa4>
    a380:	e59f0024 	ldr	r0, [pc, #36]	; a3ac <fat32_rename+0xb0>
    a384:	eb000a92 	bl	cdd4 <printk>
    a388:	eb000bc1 	bl	d294 <clean_reboot>
    a38c:	0001071c 	.word	0x0001071c
    a390:	0000e7f8 	.word	0x0000e7f8
    a394:	0000ddbc 	.word	0x0000ddbc
    a398:	0000e734 	.word	0x0000e734
    a39c:	0000dd78 	.word	0x0000dd78
    a3a0:	0000e53c 	.word	0x0000e53c
    a3a4:	0000e5e0 	.word	0x0000e5e0
    a3a8:	00000189 	.word	0x00000189
    a3ac:	0000e748 	.word	0x0000e748

0000a3b0 <fat32_create>:
    a3b0:	e92d4010 	push	{r4, lr}
    a3b4:	e24dd008 	sub	sp, sp, #8, 0
    a3b8:	e59f3078 	ldr	r3, [pc, #120]	; a438 <fat32_create+0x88>
    a3bc:	e5933000 	ldr	r3, [r3]
    a3c0:	e3530000 	cmp	r3, #0, 0
    a3c4:	0a00000d 	beq	a400 <fat32_create+0x50>
    a3c8:	e1a04002 	mov	r4, r2
    a3cc:	e59f1068 	ldr	r1, [pc, #104]	; a43c <fat32_create+0x8c>
    a3d0:	e59f0068 	ldr	r0, [pc, #104]	; a440 <fat32_create+0x90>
    a3d4:	eb000a7e 	bl	cdd4 <printk>
    a3d8:	e1a01004 	mov	r1, r4
    a3dc:	e59f0060 	ldr	r0, [pc, #96]	; a444 <fat32_create+0x94>
    a3e0:	eb000a7b 	bl	cdd4 <printk>
    a3e4:	e1a00004 	mov	r0, r4
    a3e8:	eb0005af 	bl	baac <fat32_is_valid_name>
    a3ec:	e3500000 	cmp	r0, #0, 0
    a3f0:	1a00000a 	bne	a420 <fat32_create+0x70>
    a3f4:	e3a00000 	mov	r0, #0, 0
    a3f8:	e28dd008 	add	sp, sp, #8, 0
    a3fc:	e8bd8010 	pop	{r4, pc}
    a400:	e59f3040 	ldr	r3, [pc, #64]	; a448 <fat32_create+0x98>
    a404:	e58d3000 	str	r3, [sp]
    a408:	e59f303c 	ldr	r3, [pc, #60]	; a44c <fat32_create+0x9c>
    a40c:	e59f2028 	ldr	r2, [pc, #40]	; a43c <fat32_create+0x8c>
    a410:	e59f1038 	ldr	r1, [pc, #56]	; a450 <fat32_create+0xa0>
    a414:	e59f0038 	ldr	r0, [pc, #56]	; a454 <fat32_create+0xa4>
    a418:	eb000a6d 	bl	cdd4 <printk>
    a41c:	eb000b9c 	bl	d294 <clean_reboot>
    a420:	e59f3030 	ldr	r3, [pc, #48]	; a458 <fat32_create+0xa8>
    a424:	e59f2010 	ldr	r2, [pc, #16]	; a43c <fat32_create+0x8c>
    a428:	e59f1020 	ldr	r1, [pc, #32]	; a450 <fat32_create+0xa0>
    a42c:	e59f0028 	ldr	r0, [pc, #40]	; a45c <fat32_create+0xac>
    a430:	eb000a67 	bl	cdd4 <printk>
    a434:	eb000b96 	bl	d294 <clean_reboot>
    a438:	0001071c 	.word	0x0001071c
    a43c:	0000e808 	.word	0x0000e808
    a440:	0000ddbc 	.word	0x0000ddbc
    a444:	0000e774 	.word	0x0000e774
    a448:	0000dd78 	.word	0x0000dd78
    a44c:	00000197 	.word	0x00000197
    a450:	0000e53c 	.word	0x0000e53c
    a454:	0000e5e0 	.word	0x0000e5e0
    a458:	0000019d 	.word	0x0000019d
    a45c:	0000e748 	.word	0x0000e748

0000a460 <fat32_delete>:
    a460:	e92d4010 	push	{r4, lr}
    a464:	e24dd008 	sub	sp, sp, #8, 0
    a468:	e59f3078 	ldr	r3, [pc, #120]	; a4e8 <fat32_delete+0x88>
    a46c:	e5933000 	ldr	r3, [r3]
    a470:	e3530000 	cmp	r3, #0, 0
    a474:	0a00000d 	beq	a4b0 <fat32_delete+0x50>
    a478:	e1a04002 	mov	r4, r2
    a47c:	e59f1068 	ldr	r1, [pc, #104]	; a4ec <fat32_delete+0x8c>
    a480:	e59f0068 	ldr	r0, [pc, #104]	; a4f0 <fat32_delete+0x90>
    a484:	eb000a52 	bl	cdd4 <printk>
    a488:	e1a01004 	mov	r1, r4
    a48c:	e59f0060 	ldr	r0, [pc, #96]	; a4f4 <fat32_delete+0x94>
    a490:	eb000a4f 	bl	cdd4 <printk>
    a494:	e1a00004 	mov	r0, r4
    a498:	eb000583 	bl	baac <fat32_is_valid_name>
    a49c:	e3500000 	cmp	r0, #0, 0
    a4a0:	1a00000a 	bne	a4d0 <fat32_delete+0x70>
    a4a4:	e3a00000 	mov	r0, #0, 0
    a4a8:	e28dd008 	add	sp, sp, #8, 0
    a4ac:	e8bd8010 	pop	{r4, pc}
    a4b0:	e59f3040 	ldr	r3, [pc, #64]	; a4f8 <fat32_delete+0x98>
    a4b4:	e58d3000 	str	r3, [sp]
    a4b8:	e59f303c 	ldr	r3, [pc, #60]	; a4fc <fat32_delete+0x9c>
    a4bc:	e59f2028 	ldr	r2, [pc, #40]	; a4ec <fat32_delete+0x8c>
    a4c0:	e59f1038 	ldr	r1, [pc, #56]	; a500 <fat32_delete+0xa0>
    a4c4:	e59f0038 	ldr	r0, [pc, #56]	; a504 <fat32_delete+0xa4>
    a4c8:	eb000a41 	bl	cdd4 <printk>
    a4cc:	eb000b70 	bl	d294 <clean_reboot>
    a4d0:	e3a03f6e 	mov	r3, #440	; 0x1b8
    a4d4:	e59f2010 	ldr	r2, [pc, #16]	; a4ec <fat32_delete+0x8c>
    a4d8:	e59f1020 	ldr	r1, [pc, #32]	; a500 <fat32_delete+0xa0>
    a4dc:	e59f0024 	ldr	r0, [pc, #36]	; a508 <fat32_delete+0xa8>
    a4e0:	eb000a3b 	bl	cdd4 <printk>
    a4e4:	eb000b6a 	bl	d294 <clean_reboot>
    a4e8:	0001071c 	.word	0x0001071c
    a4ec:	0000e818 	.word	0x0000e818
    a4f0:	0000ddbc 	.word	0x0000ddbc
    a4f4:	0000e784 	.word	0x0000e784
    a4f8:	0000dd78 	.word	0x0000dd78
    a4fc:	000001b3 	.word	0x000001b3
    a500:	0000e53c 	.word	0x0000e53c
    a504:	0000e5e0 	.word	0x0000e5e0
    a508:	0000e748 	.word	0x0000e748

0000a50c <fat32_truncate>:
    a50c:	e52de004 	push	{lr}		; (str lr, [sp, #-4]!)
    a510:	e24dd00c 	sub	sp, sp, #12, 0
    a514:	e59f3060 	ldr	r3, [pc, #96]	; a57c <fat32_truncate+0x70>
    a518:	e5933000 	ldr	r3, [r3]
    a51c:	e3530000 	cmp	r3, #0, 0
    a520:	0a00000d 	beq	a55c <fat32_truncate+0x50>
    a524:	e1a04002 	mov	r4, r2
    a528:	e59f5050 	ldr	r5, [pc, #80]	; a580 <fat32_truncate+0x74>
    a52c:	e1a01005 	mov	r1, r5
    a530:	e59f004c 	ldr	r0, [pc, #76]	; a584 <fat32_truncate+0x78>
    a534:	eb000a26 	bl	cdd4 <printk>
    a538:	e1a01004 	mov	r1, r4
    a53c:	e59f0044 	ldr	r0, [pc, #68]	; a588 <fat32_truncate+0x7c>
    a540:	eb000a23 	bl	cdd4 <printk>
    a544:	e3a03f73 	mov	r3, #460	; 0x1cc
    a548:	e1a02005 	mov	r2, r5
    a54c:	e59f1038 	ldr	r1, [pc, #56]	; a58c <fat32_truncate+0x80>
    a550:	e59f0038 	ldr	r0, [pc, #56]	; a590 <fat32_truncate+0x84>
    a554:	eb000a1e 	bl	cdd4 <printk>
    a558:	eb000b4d 	bl	d294 <clean_reboot>
    a55c:	e59f3030 	ldr	r3, [pc, #48]	; a594 <fat32_truncate+0x88>
    a560:	e58d3000 	str	r3, [sp]
    a564:	e59f302c 	ldr	r3, [pc, #44]	; a598 <fat32_truncate+0x8c>
    a568:	e59f2010 	ldr	r2, [pc, #16]	; a580 <fat32_truncate+0x74>
    a56c:	e59f1018 	ldr	r1, [pc, #24]	; a58c <fat32_truncate+0x80>
    a570:	e59f0024 	ldr	r0, [pc, #36]	; a59c <fat32_truncate+0x90>
    a574:	eb000a16 	bl	cdd4 <printk>
    a578:	eb000b45 	bl	d294 <clean_reboot>
    a57c:	0001071c 	.word	0x0001071c
    a580:	0000e828 	.word	0x0000e828
    a584:	0000ddbc 	.word	0x0000ddbc
    a588:	0000e794 	.word	0x0000e794
    a58c:	0000e53c 	.word	0x0000e53c
    a590:	0000e748 	.word	0x0000e748
    a594:	0000dd78 	.word	0x0000dd78
    a598:	000001c3 	.word	0x000001c3
    a59c:	0000e5e0 	.word	0x0000e5e0

0000a5a0 <fat32_write>:
    a5a0:	e52de004 	push	{lr}		; (str lr, [sp, #-4]!)
    a5a4:	e24dd00c 	sub	sp, sp, #12, 0
    a5a8:	e59f306c 	ldr	r3, [pc, #108]	; a61c <fat32_write+0x7c>
    a5ac:	e5933000 	ldr	r3, [r3]
    a5b0:	e3530000 	cmp	r3, #0, 0
    a5b4:	0a00000a 	beq	a5e4 <fat32_write+0x44>
    a5b8:	e5913024 	ldr	r3, [r1, #36]	; 0x24
    a5bc:	e3530000 	cmp	r3, #0, 0
    a5c0:	1a00000f 	bne	a604 <fat32_write+0x64>
    a5c4:	e59f3054 	ldr	r3, [pc, #84]	; a620 <fat32_write+0x80>
    a5c8:	e58d3000 	str	r3, [sp]
    a5cc:	e59f3050 	ldr	r3, [pc, #80]	; a624 <fat32_write+0x84>
    a5d0:	e59f2050 	ldr	r2, [pc, #80]	; a628 <fat32_write+0x88>
    a5d4:	e59f1050 	ldr	r1, [pc, #80]	; a62c <fat32_write+0x8c>
    a5d8:	e59f0050 	ldr	r0, [pc, #80]	; a630 <fat32_write+0x90>
    a5dc:	eb0009fc 	bl	cdd4 <printk>
    a5e0:	eb000b2b 	bl	d294 <clean_reboot>
    a5e4:	e59f3048 	ldr	r3, [pc, #72]	; a634 <fat32_write+0x94>
    a5e8:	e58d3000 	str	r3, [sp]
    a5ec:	e3a03f75 	mov	r3, #468	; 0x1d4
    a5f0:	e59f2030 	ldr	r2, [pc, #48]	; a628 <fat32_write+0x88>
    a5f4:	e59f1030 	ldr	r1, [pc, #48]	; a62c <fat32_write+0x8c>
    a5f8:	e59f0038 	ldr	r0, [pc, #56]	; a638 <fat32_write+0x98>
    a5fc:	eb0009f4 	bl	cdd4 <printk>
    a600:	eb000b23 	bl	d294 <clean_reboot>
    a604:	e3a03e1e 	mov	r3, #480	; 0x1e0
    a608:	e59f2018 	ldr	r2, [pc, #24]	; a628 <fat32_write+0x88>
    a60c:	e59f1018 	ldr	r1, [pc, #24]	; a62c <fat32_write+0x8c>
    a610:	e59f0024 	ldr	r0, [pc, #36]	; a63c <fat32_write+0x9c>
    a614:	eb0009ee 	bl	cdd4 <printk>
    a618:	eb000b1d 	bl	d294 <clean_reboot>
    a61c:	0001071c 	.word	0x0001071c
    a620:	0000e6d0 	.word	0x0000e6d0
    a624:	000001d5 	.word	0x000001d5
    a628:	0000e838 	.word	0x0000e838
    a62c:	0000e53c 	.word	0x0000e53c
    a630:	0000e6e4 	.word	0x0000e6e4
    a634:	0000dd78 	.word	0x0000dd78
    a638:	0000e5e0 	.word	0x0000e5e0
    a63c:	0000e748 	.word	0x0000e748

0000a640 <fat32_flush>:
    a640:	e59f3038 	ldr	r3, [pc, #56]	; a680 <fat32_flush+0x40>
    a644:	e5933000 	ldr	r3, [r3]
    a648:	e3530000 	cmp	r3, #0, 0
    a64c:	0a000001 	beq	a658 <fat32_flush+0x18>
    a650:	e3a00000 	mov	r0, #0, 0
    a654:	e12fff1e 	bx	lr
    a658:	e52de004 	push	{lr}		; (str lr, [sp, #-4]!)
    a65c:	e24dd00c 	sub	sp, sp, #12, 0
    a660:	e59f301c 	ldr	r3, [pc, #28]	; a684 <fat32_flush+0x44>
    a664:	e58d3000 	str	r3, [sp]
    a668:	e3a03f79 	mov	r3, #484	; 0x1e4
    a66c:	e59f2014 	ldr	r2, [pc, #20]	; a688 <fat32_flush+0x48>
    a670:	e59f1014 	ldr	r1, [pc, #20]	; a68c <fat32_flush+0x4c>
    a674:	e59f0014 	ldr	r0, [pc, #20]	; a690 <fat32_flush+0x50>
    a678:	eb0009d5 	bl	cdd4 <printk>
    a67c:	eb000b04 	bl	d294 <clean_reboot>
    a680:	0001071c 	.word	0x0001071c
    a684:	0000dd78 	.word	0x0000dd78
    a688:	0000e844 	.word	0x0000e844
    a68c:	0000e53c 	.word	0x0000e53c
    a690:	0000e5e0 	.word	0x0000e5e0

0000a694 <get_boot_sector>:
    a694:	e92d4010 	push	{r4, lr}
    a698:	e1a04000 	mov	r4, r0
    a69c:	e3a02c02 	mov	r2, #512	; 0x200
    a6a0:	e59f1008 	ldr	r1, [pc, #8]	; a6b0 <get_boot_sector+0x1c>
    a6a4:	eb00096b 	bl	cc58 <memcpy>
    a6a8:	e1a00004 	mov	r0, r4
    a6ac:	e8bd8010 	pop	{r4, pc}
    a6b0:	000109dc 	.word	0x000109dc

0000a6b4 <mbr_get_partition>:
    a6b4:	e92d4010 	push	{r4, lr}
    a6b8:	e24dd018 	sub	sp, sp, #24, 0
    a6bc:	e3520003 	cmp	r2, #3, 0
    a6c0:	8a00000e 	bhi	a700 <mbr_get_partition+0x4c>
    a6c4:	e1a04000 	mov	r4, r0
    a6c8:	e1a03002 	mov	r3, r2
    a6cc:	e2811f6f 	add	r1, r1, #444	; 0x1bc
    a6d0:	e2811002 	add	r1, r1, #2, 0
    a6d4:	e3a02010 	mov	r2, #16, 0
    a6d8:	e0811203 	add	r1, r1, r3, lsl #4
    a6dc:	e28d0008 	add	r0, sp, #8, 0
    a6e0:	eb00095c 	bl	cc58 <memcpy>
    a6e4:	e3a02010 	mov	r2, #16, 0
    a6e8:	e28d1008 	add	r1, sp, #8, 0
    a6ec:	e1a00004 	mov	r0, r4
    a6f0:	eb000958 	bl	cc58 <memcpy>
    a6f4:	e1a00004 	mov	r0, r4
    a6f8:	e28dd018 	add	sp, sp, #24, 0
    a6fc:	e8bd8010 	pop	{r4, pc}
    a700:	e59f3018 	ldr	r3, [pc, #24]	; a720 <mbr_get_partition+0x6c>
    a704:	e58d3000 	str	r3, [sp]
    a708:	e3a0301c 	mov	r3, #28, 0
    a70c:	e59f2010 	ldr	r2, [pc, #16]	; a724 <mbr_get_partition+0x70>
    a710:	e59f1010 	ldr	r1, [pc, #16]	; a728 <mbr_get_partition+0x74>
    a714:	e59f0010 	ldr	r0, [pc, #16]	; a72c <mbr_get_partition+0x78>
    a718:	eb0009ad 	bl	cdd4 <printk>
    a71c:	eb000adc 	bl	d294 <clean_reboot>
    a720:	0000e868 	.word	0x0000e868
    a724:	0000ec8c 	.word	0x0000ec8c
    a728:	0000e850 	.word	0x0000e850
    a72c:	0000e120 	.word	0x0000e120

0000a730 <mbr_part_str>:
    a730:	e35000fc 	cmp	r0, #252, 0	; 0xfc
    a734:	979ff100 	ldrls	pc, [pc, r0, lsl #2]
    a738:	ea000140 	b	ac40 <mbr_part_str+0x510>
    a73c:	0000ac64 	.word	0x0000ac64
    a740:	0000ac6c 	.word	0x0000ac6c
    a744:	0000ac40 	.word	0x0000ac40
    a748:	0000ac40 	.word	0x0000ac40
    a74c:	0000ab30 	.word	0x0000ab30
    a750:	0000ab38 	.word	0x0000ab38
    a754:	0000ab40 	.word	0x0000ab40
    a758:	0000ab48 	.word	0x0000ab48
    a75c:	0000ac40 	.word	0x0000ac40
    a760:	0000ac40 	.word	0x0000ac40
    a764:	0000ac40 	.word	0x0000ac40
    a768:	0000ab50 	.word	0x0000ab50
    a76c:	0000ab58 	.word	0x0000ab58
    a770:	0000ac40 	.word	0x0000ac40
    a774:	0000ab60 	.word	0x0000ab60
    a778:	0000ab68 	.word	0x0000ab68
    a77c:	0000ac40 	.word	0x0000ac40
    a780:	0000ab70 	.word	0x0000ab70
    a784:	0000ac40 	.word	0x0000ac40
    a788:	0000ac40 	.word	0x0000ac40
    a78c:	0000ab78 	.word	0x0000ab78
    a790:	0000ac40 	.word	0x0000ac40
    a794:	0000ab80 	.word	0x0000ab80
    a798:	0000ac40 	.word	0x0000ac40
    a79c:	0000ac40 	.word	0x0000ac40
    a7a0:	0000ac40 	.word	0x0000ac40
    a7a4:	0000ac40 	.word	0x0000ac40
    a7a8:	0000ab88 	.word	0x0000ab88
    a7ac:	0000ab90 	.word	0x0000ab90
    a7b0:	0000ac40 	.word	0x0000ac40
    a7b4:	0000ab98 	.word	0x0000ab98
    a7b8:	0000ac40 	.word	0x0000ac40
    a7bc:	0000ac40 	.word	0x0000ac40
    a7c0:	0000ac40 	.word	0x0000ac40
    a7c4:	0000ac40 	.word	0x0000ac40
    a7c8:	0000ac40 	.word	0x0000ac40
    a7cc:	0000ac40 	.word	0x0000ac40
    a7d0:	0000ac40 	.word	0x0000ac40
    a7d4:	0000ac40 	.word	0x0000ac40
    a7d8:	0000ac40 	.word	0x0000ac40
    a7dc:	0000ac40 	.word	0x0000ac40
    a7e0:	0000ac40 	.word	0x0000ac40
    a7e4:	0000ac40 	.word	0x0000ac40
    a7e8:	0000ac40 	.word	0x0000ac40
    a7ec:	0000ac40 	.word	0x0000ac40
    a7f0:	0000ac40 	.word	0x0000ac40
    a7f4:	0000ac40 	.word	0x0000ac40
    a7f8:	0000ac40 	.word	0x0000ac40
    a7fc:	0000ac40 	.word	0x0000ac40
    a800:	0000ac40 	.word	0x0000ac40
    a804:	0000ac40 	.word	0x0000ac40
    a808:	0000ac40 	.word	0x0000ac40
    a80c:	0000ac40 	.word	0x0000ac40
    a810:	0000ac40 	.word	0x0000ac40
    a814:	0000ac40 	.word	0x0000ac40
    a818:	0000ac40 	.word	0x0000ac40
    a81c:	0000ac40 	.word	0x0000ac40
    a820:	0000ac40 	.word	0x0000ac40
    a824:	0000ac40 	.word	0x0000ac40
    a828:	0000ac40 	.word	0x0000ac40
    a82c:	0000ac40 	.word	0x0000ac40
    a830:	0000ac40 	.word	0x0000ac40
    a834:	0000ac40 	.word	0x0000ac40
    a838:	0000ac40 	.word	0x0000ac40
    a83c:	0000ac40 	.word	0x0000ac40
    a840:	0000ac40 	.word	0x0000ac40
    a844:	0000aba0 	.word	0x0000aba0
    a848:	0000ac40 	.word	0x0000ac40
    a84c:	0000ac40 	.word	0x0000ac40
    a850:	0000ac40 	.word	0x0000ac40
    a854:	0000ac40 	.word	0x0000ac40
    a858:	0000ac40 	.word	0x0000ac40
    a85c:	0000ac40 	.word	0x0000ac40
    a860:	0000ac40 	.word	0x0000ac40
    a864:	0000ac40 	.word	0x0000ac40
    a868:	0000ac40 	.word	0x0000ac40
    a86c:	0000ac40 	.word	0x0000ac40
    a870:	0000ac40 	.word	0x0000ac40
    a874:	0000ac40 	.word	0x0000ac40
    a878:	0000ac40 	.word	0x0000ac40
    a87c:	0000ac40 	.word	0x0000ac40
    a880:	0000ac40 	.word	0x0000ac40
    a884:	0000ac40 	.word	0x0000ac40
    a888:	0000ac40 	.word	0x0000ac40
    a88c:	0000ac40 	.word	0x0000ac40
    a890:	0000ac40 	.word	0x0000ac40
    a894:	0000ac40 	.word	0x0000ac40
    a898:	0000ac40 	.word	0x0000ac40
    a89c:	0000ac40 	.word	0x0000ac40
    a8a0:	0000ac40 	.word	0x0000ac40
    a8a4:	0000ac40 	.word	0x0000ac40
    a8a8:	0000ac40 	.word	0x0000ac40
    a8ac:	0000ac40 	.word	0x0000ac40
    a8b0:	0000ac40 	.word	0x0000ac40
    a8b4:	0000ac40 	.word	0x0000ac40
    a8b8:	0000ac40 	.word	0x0000ac40
    a8bc:	0000ac40 	.word	0x0000ac40
    a8c0:	0000ac40 	.word	0x0000ac40
    a8c4:	0000ac40 	.word	0x0000ac40
    a8c8:	0000ac40 	.word	0x0000ac40
    a8cc:	0000ac40 	.word	0x0000ac40
    a8d0:	0000ac40 	.word	0x0000ac40
    a8d4:	0000ac40 	.word	0x0000ac40
    a8d8:	0000ac40 	.word	0x0000ac40
    a8dc:	0000ac40 	.word	0x0000ac40
    a8e0:	0000ac40 	.word	0x0000ac40
    a8e4:	0000ac40 	.word	0x0000ac40
    a8e8:	0000ac40 	.word	0x0000ac40
    a8ec:	0000ac40 	.word	0x0000ac40
    a8f0:	0000ac40 	.word	0x0000ac40
    a8f4:	0000ac40 	.word	0x0000ac40
    a8f8:	0000ac40 	.word	0x0000ac40
    a8fc:	0000ac40 	.word	0x0000ac40
    a900:	0000ac40 	.word	0x0000ac40
    a904:	0000ac40 	.word	0x0000ac40
    a908:	0000ac40 	.word	0x0000ac40
    a90c:	0000ac40 	.word	0x0000ac40
    a910:	0000ac40 	.word	0x0000ac40
    a914:	0000ac40 	.word	0x0000ac40
    a918:	0000ac40 	.word	0x0000ac40
    a91c:	0000ac40 	.word	0x0000ac40
    a920:	0000ac40 	.word	0x0000ac40
    a924:	0000ac40 	.word	0x0000ac40
    a928:	0000ac40 	.word	0x0000ac40
    a92c:	0000ac40 	.word	0x0000ac40
    a930:	0000ac40 	.word	0x0000ac40
    a934:	0000ac40 	.word	0x0000ac40
    a938:	0000ac40 	.word	0x0000ac40
    a93c:	0000ac40 	.word	0x0000ac40
    a940:	0000ac40 	.word	0x0000ac40
    a944:	0000aba8 	.word	0x0000aba8
    a948:	0000abb0 	.word	0x0000abb0
    a94c:	0000abb8 	.word	0x0000abb8
    a950:	0000abc0 	.word	0x0000abc0
    a954:	0000abc8 	.word	0x0000abc8
    a958:	0000abd0 	.word	0x0000abd0
    a95c:	0000ac40 	.word	0x0000ac40
    a960:	0000ac40 	.word	0x0000ac40
    a964:	0000ac40 	.word	0x0000ac40
    a968:	0000ac40 	.word	0x0000ac40
    a96c:	0000ac40 	.word	0x0000ac40
    a970:	0000ac40 	.word	0x0000ac40
    a974:	0000ac40 	.word	0x0000ac40
    a978:	0000ac40 	.word	0x0000ac40
    a97c:	0000ac40 	.word	0x0000ac40
    a980:	0000ac40 	.word	0x0000ac40
    a984:	0000ac40 	.word	0x0000ac40
    a988:	0000ac40 	.word	0x0000ac40
    a98c:	0000ac40 	.word	0x0000ac40
    a990:	0000ac40 	.word	0x0000ac40
    a994:	0000ac40 	.word	0x0000ac40
    a998:	0000ac40 	.word	0x0000ac40
    a99c:	0000ac40 	.word	0x0000ac40
    a9a0:	0000ac40 	.word	0x0000ac40
    a9a4:	0000ac40 	.word	0x0000ac40
    a9a8:	0000ac40 	.word	0x0000ac40
    a9ac:	0000ac40 	.word	0x0000ac40
    a9b0:	0000ac40 	.word	0x0000ac40
    a9b4:	0000ac40 	.word	0x0000ac40
    a9b8:	0000ac40 	.word	0x0000ac40
    a9bc:	0000abd8 	.word	0x0000abd8
    a9c0:	0000abe0 	.word	0x0000abe0
    a9c4:	0000ac40 	.word	0x0000ac40
    a9c8:	0000ac40 	.word	0x0000ac40
    a9cc:	0000ac40 	.word	0x0000ac40
    a9d0:	0000abe8 	.word	0x0000abe8
    a9d4:	0000abf0 	.word	0x0000abf0
    a9d8:	0000ac40 	.word	0x0000ac40
    a9dc:	0000abf8 	.word	0x0000abf8
    a9e0:	0000ac00 	.word	0x0000ac00
    a9e4:	0000ac40 	.word	0x0000ac40
    a9e8:	0000ac08 	.word	0x0000ac08
    a9ec:	0000ac40 	.word	0x0000ac40
    a9f0:	0000ac40 	.word	0x0000ac40
    a9f4:	0000ac40 	.word	0x0000ac40
    a9f8:	0000ac40 	.word	0x0000ac40
    a9fc:	0000ac40 	.word	0x0000ac40
    aa00:	0000ac40 	.word	0x0000ac40
    aa04:	0000ac40 	.word	0x0000ac40
    aa08:	0000ac40 	.word	0x0000ac40
    aa0c:	0000ac40 	.word	0x0000ac40
    aa10:	0000ac40 	.word	0x0000ac40
    aa14:	0000ac40 	.word	0x0000ac40
    aa18:	0000ac10 	.word	0x0000ac10
    aa1c:	0000ac18 	.word	0x0000ac18
    aa20:	0000ac40 	.word	0x0000ac40
    aa24:	0000ac40 	.word	0x0000ac40
    aa28:	0000ac40 	.word	0x0000ac40
    aa2c:	0000ac40 	.word	0x0000ac40
    aa30:	0000ac40 	.word	0x0000ac40
    aa34:	0000ac40 	.word	0x0000ac40
    aa38:	0000ac40 	.word	0x0000ac40
    aa3c:	0000ac40 	.word	0x0000ac40
    aa40:	0000ac40 	.word	0x0000ac40
    aa44:	0000ac40 	.word	0x0000ac40
    aa48:	0000ac40 	.word	0x0000ac40
    aa4c:	0000ac40 	.word	0x0000ac40
    aa50:	0000ac40 	.word	0x0000ac40
    aa54:	0000ac40 	.word	0x0000ac40
    aa58:	0000ac40 	.word	0x0000ac40
    aa5c:	0000ac40 	.word	0x0000ac40
    aa60:	0000ac40 	.word	0x0000ac40
    aa64:	0000ac40 	.word	0x0000ac40
    aa68:	0000ac40 	.word	0x0000ac40
    aa6c:	0000ac40 	.word	0x0000ac40
    aa70:	0000ac40 	.word	0x0000ac40
    aa74:	0000ac40 	.word	0x0000ac40
    aa78:	0000ac40 	.word	0x0000ac40
    aa7c:	0000ac40 	.word	0x0000ac40
    aa80:	0000ac40 	.word	0x0000ac40
    aa84:	0000ac40 	.word	0x0000ac40
    aa88:	0000ac40 	.word	0x0000ac40
    aa8c:	0000ac40 	.word	0x0000ac40
    aa90:	0000ac40 	.word	0x0000ac40
    aa94:	0000ac40 	.word	0x0000ac40
    aa98:	0000ac40 	.word	0x0000ac40
    aa9c:	0000ac40 	.word	0x0000ac40
    aaa0:	0000ac40 	.word	0x0000ac40
    aaa4:	0000ac40 	.word	0x0000ac40
    aaa8:	0000ac40 	.word	0x0000ac40
    aaac:	0000ac40 	.word	0x0000ac40
    aab0:	0000ac40 	.word	0x0000ac40
    aab4:	0000ac40 	.word	0x0000ac40
    aab8:	0000ac40 	.word	0x0000ac40
    aabc:	0000ac40 	.word	0x0000ac40
    aac0:	0000ac40 	.word	0x0000ac40
    aac4:	0000ac40 	.word	0x0000ac40
    aac8:	0000ac40 	.word	0x0000ac40
    aacc:	0000ac40 	.word	0x0000ac40
    aad0:	0000ac40 	.word	0x0000ac40
    aad4:	0000ac40 	.word	0x0000ac40
    aad8:	0000ac40 	.word	0x0000ac40
    aadc:	0000ac40 	.word	0x0000ac40
    aae0:	0000ac40 	.word	0x0000ac40
    aae4:	0000ac40 	.word	0x0000ac40
    aae8:	0000ac40 	.word	0x0000ac40
    aaec:	0000ac40 	.word	0x0000ac40
    aaf0:	0000ac40 	.word	0x0000ac40
    aaf4:	0000ac20 	.word	0x0000ac20
    aaf8:	0000ac28 	.word	0x0000ac28
    aafc:	0000ac40 	.word	0x0000ac40
    ab00:	0000ac40 	.word	0x0000ac40
    ab04:	0000ac40 	.word	0x0000ac40
    ab08:	0000ac40 	.word	0x0000ac40
    ab0c:	0000ac40 	.word	0x0000ac40
    ab10:	0000ac40 	.word	0x0000ac40
    ab14:	0000ac40 	.word	0x0000ac40
    ab18:	0000ac40 	.word	0x0000ac40
    ab1c:	0000ac40 	.word	0x0000ac40
    ab20:	0000ac40 	.word	0x0000ac40
    ab24:	0000ac40 	.word	0x0000ac40
    ab28:	0000ac30 	.word	0x0000ac30
    ab2c:	0000ac38 	.word	0x0000ac38
    ab30:	e59f013c 	ldr	r0, [pc, #316]	; ac74 <mbr_part_str+0x544>
    ab34:	e12fff1e 	bx	lr
    ab38:	e59f0138 	ldr	r0, [pc, #312]	; ac78 <mbr_part_str+0x548>
    ab3c:	e12fff1e 	bx	lr
    ab40:	e59f0134 	ldr	r0, [pc, #308]	; ac7c <mbr_part_str+0x54c>
    ab44:	e12fff1e 	bx	lr
    ab48:	e59f0130 	ldr	r0, [pc, #304]	; ac80 <mbr_part_str+0x550>
    ab4c:	e12fff1e 	bx	lr
    ab50:	e59f012c 	ldr	r0, [pc, #300]	; ac84 <mbr_part_str+0x554>
    ab54:	e12fff1e 	bx	lr
    ab58:	e59f0128 	ldr	r0, [pc, #296]	; ac88 <mbr_part_str+0x558>
    ab5c:	e12fff1e 	bx	lr
    ab60:	e59f0124 	ldr	r0, [pc, #292]	; ac8c <mbr_part_str+0x55c>
    ab64:	e12fff1e 	bx	lr
    ab68:	e59f0120 	ldr	r0, [pc, #288]	; ac90 <mbr_part_str+0x560>
    ab6c:	e12fff1e 	bx	lr
    ab70:	e59f011c 	ldr	r0, [pc, #284]	; ac94 <mbr_part_str+0x564>
    ab74:	e12fff1e 	bx	lr
    ab78:	e59f0118 	ldr	r0, [pc, #280]	; ac98 <mbr_part_str+0x568>
    ab7c:	e12fff1e 	bx	lr
    ab80:	e59f0114 	ldr	r0, [pc, #276]	; ac9c <mbr_part_str+0x56c>
    ab84:	e12fff1e 	bx	lr
    ab88:	e59f0110 	ldr	r0, [pc, #272]	; aca0 <mbr_part_str+0x570>
    ab8c:	e12fff1e 	bx	lr
    ab90:	e59f010c 	ldr	r0, [pc, #268]	; aca4 <mbr_part_str+0x574>
    ab94:	e12fff1e 	bx	lr
    ab98:	e59f0108 	ldr	r0, [pc, #264]	; aca8 <mbr_part_str+0x578>
    ab9c:	e12fff1e 	bx	lr
    aba0:	e59f0104 	ldr	r0, [pc, #260]	; acac <mbr_part_str+0x57c>
    aba4:	e12fff1e 	bx	lr
    aba8:	e59f0100 	ldr	r0, [pc, #256]	; acb0 <mbr_part_str+0x580>
    abac:	e12fff1e 	bx	lr
    abb0:	e59f00fc 	ldr	r0, [pc, #252]	; acb4 <mbr_part_str+0x584>
    abb4:	e12fff1e 	bx	lr
    abb8:	e59f00f8 	ldr	r0, [pc, #248]	; acb8 <mbr_part_str+0x588>
    abbc:	e12fff1e 	bx	lr
    abc0:	e59f00f4 	ldr	r0, [pc, #244]	; acbc <mbr_part_str+0x58c>
    abc4:	e12fff1e 	bx	lr
    abc8:	e59f00f0 	ldr	r0, [pc, #240]	; acc0 <mbr_part_str+0x590>
    abcc:	e12fff1e 	bx	lr
    abd0:	e59f00e8 	ldr	r0, [pc, #232]	; acc0 <mbr_part_str+0x590>
    abd4:	e12fff1e 	bx	lr
    abd8:	e59f00d8 	ldr	r0, [pc, #216]	; acb8 <mbr_part_str+0x588>
    abdc:	e12fff1e 	bx	lr
    abe0:	e59f00d0 	ldr	r0, [pc, #208]	; acb8 <mbr_part_str+0x588>
    abe4:	e12fff1e 	bx	lr
    abe8:	e59f00d4 	ldr	r0, [pc, #212]	; acc4 <mbr_part_str+0x594>
    abec:	e12fff1e 	bx	lr
    abf0:	e59f00d0 	ldr	r0, [pc, #208]	; acc8 <mbr_part_str+0x598>
    abf4:	e12fff1e 	bx	lr
    abf8:	e59f00cc 	ldr	r0, [pc, #204]	; accc <mbr_part_str+0x59c>
    abfc:	e12fff1e 	bx	lr
    ac00:	e59f00c8 	ldr	r0, [pc, #200]	; acd0 <mbr_part_str+0x5a0>
    ac04:	e12fff1e 	bx	lr
    ac08:	e59f00c4 	ldr	r0, [pc, #196]	; acd4 <mbr_part_str+0x5a4>
    ac0c:	e12fff1e 	bx	lr
    ac10:	e59f00c0 	ldr	r0, [pc, #192]	; acd8 <mbr_part_str+0x5a8>
    ac14:	e12fff1e 	bx	lr
    ac18:	e59f00bc 	ldr	r0, [pc, #188]	; acdc <mbr_part_str+0x5ac>
    ac1c:	e12fff1e 	bx	lr
    ac20:	e59f00b8 	ldr	r0, [pc, #184]	; ace0 <mbr_part_str+0x5b0>
    ac24:	e12fff1e 	bx	lr
    ac28:	e59f00b4 	ldr	r0, [pc, #180]	; ace4 <mbr_part_str+0x5b4>
    ac2c:	e12fff1e 	bx	lr
    ac30:	e59f00b0 	ldr	r0, [pc, #176]	; ace8 <mbr_part_str+0x5b8>
    ac34:	e12fff1e 	bx	lr
    ac38:	e59f00ac 	ldr	r0, [pc, #172]	; acec <mbr_part_str+0x5bc>
    ac3c:	e12fff1e 	bx	lr
    ac40:	e52de004 	push	{lr}		; (str lr, [sp, #-4]!)
    ac44:	e24dd00c 	sub	sp, sp, #12, 0
    ac48:	e58d0000 	str	r0, [sp]
    ac4c:	e3a0304d 	mov	r3, #77, 0	; 0x4d
    ac50:	e59f2098 	ldr	r2, [pc, #152]	; acf0 <mbr_part_str+0x5c0>
    ac54:	e59f1098 	ldr	r1, [pc, #152]	; acf4 <mbr_part_str+0x5c4>
    ac58:	e59f0098 	ldr	r0, [pc, #152]	; acf8 <mbr_part_str+0x5c8>
    ac5c:	eb00085c 	bl	cdd4 <printk>
    ac60:	eb00098b 	bl	d294 <clean_reboot>
    ac64:	e59f0090 	ldr	r0, [pc, #144]	; acfc <mbr_part_str+0x5cc>
    ac68:	e12fff1e 	bx	lr
    ac6c:	e59f008c 	ldr	r0, [pc, #140]	; ad00 <mbr_part_str+0x5d0>
    ac70:	e12fff1e 	bx	lr
    ac74:	0000e88c 	.word	0x0000e88c
    ac78:	0000e8a4 	.word	0x0000e8a4
    ac7c:	0000e8c0 	.word	0x0000e8c0
    ac80:	0000e8dc 	.word	0x0000e8dc
    ac84:	0000e8e4 	.word	0x0000e8e4
    ac88:	0000e8f0 	.word	0x0000e8f0
    ac8c:	0000e8fc 	.word	0x0000e8fc
    ac90:	0000e918 	.word	0x0000e918
    ac94:	0000e934 	.word	0x0000e934
    ac98:	0000e948 	.word	0x0000e948
    ac9c:	0000e968 	.word	0x0000e968
    aca0:	0000e988 	.word	0x0000e988
    aca4:	0000e99c 	.word	0x0000e99c
    aca8:	0000e9b0 	.word	0x0000e9b0
    acac:	0000e9d0 	.word	0x0000e9d0
    acb0:	0000e9f0 	.word	0x0000e9f0
    acb4:	0000ea0c 	.word	0x0000ea0c
    acb8:	0000ea14 	.word	0x0000ea14
    acbc:	0000ea20 	.word	0x0000ea20
    acc0:	0000ea30 	.word	0x0000ea30
    acc4:	0000ea40 	.word	0x0000ea40
    acc8:	0000ea48 	.word	0x0000ea48
    accc:	0000ea50 	.word	0x0000ea50
    acd0:	0000ea58 	.word	0x0000ea58
    acd4:	0000ea60 	.word	0x0000ea60
    acd8:	0000ea70 	.word	0x0000ea70
    acdc:	0000ea78 	.word	0x0000ea78
    ace0:	0000ea84 	.word	0x0000ea84
    ace4:	0000ea94 	.word	0x0000ea94
    ace8:	0000eaac 	.word	0x0000eaac
    acec:	0000e874 	.word	0x0000e874
    acf0:	0000eca0 	.word	0x0000eca0
    acf4:	0000e850 	.word	0x0000e850
    acf8:	0000eac8 	.word	0x0000eac8
    acfc:	0000eac0 	.word	0x0000eac0
    ad00:	0000e880 	.word	0x0000e880

0000ad04 <mbr_partition_empty>:
    ad04:	e92d4010 	push	{r4, lr}
    ad08:	e3a01010 	mov	r1, #16, 0
    ad0c:	eb0007fc 	bl	cd04 <memiszero>
    ad10:	e8bd8010 	pop	{r4, pc}

0000ad14 <mbr_partition_empty_raw>:
    ad14:	e92d4010 	push	{r4, lr}
    ad18:	e3a01010 	mov	r1, #16, 0
    ad1c:	eb0007f8 	bl	cd04 <memiszero>
    ad20:	e8bd8010 	pop	{r4, pc}

0000ad24 <mbr_check>:
    ad24:	e92d4030 	push	{r4, r5, lr}
    ad28:	e24dd01c 	sub	sp, sp, #28, 0
    ad2c:	e2803f7f 	add	r3, r0, #508	; 0x1fc
    ad30:	e1d320b2 	ldrh	r2, [r3, #2]
    ad34:	e59f3144 	ldr	r3, [pc, #324]	; ae80 <mbr_check+0x15c>
    ad38:	e1520003 	cmp	r2, r3
    ad3c:	1a00001f 	bne	adc0 <mbr_check+0x9c>
    ad40:	e1a04000 	mov	r4, r0
    ad44:	e2805f6f 	add	r5, r0, #444	; 0x1bc
    ad48:	e2855002 	add	r5, r5, #2, 0
    ad4c:	e3a02010 	mov	r2, #16, 0
    ad50:	e1a01005 	mov	r1, r5
    ad54:	e28d0008 	add	r0, sp, #8, 0
    ad58:	eb0007be 	bl	cc58 <memcpy>
    ad5c:	e5dd300c 	ldrb	r3, [sp, #12]
    ad60:	e243300b 	sub	r3, r3, #11, 0
    ad64:	e3530001 	cmp	r3, #1, 0
    ad68:	8a00001c 	bhi	ade0 <mbr_check+0xbc>
    ad6c:	e1a00005 	mov	r0, r5
    ad70:	ebffffe7 	bl	ad14 <mbr_partition_empty_raw>
    ad74:	e3500000 	cmp	r0, #0, 0
    ad78:	1a000020 	bne	ae00 <mbr_check+0xdc>
    ad7c:	e2840f73 	add	r0, r4, #460	; 0x1cc
    ad80:	e2800002 	add	r0, r0, #2, 0
    ad84:	ebffffe2 	bl	ad14 <mbr_partition_empty_raw>
    ad88:	e3500000 	cmp	r0, #0, 0
    ad8c:	0a000023 	beq	ae20 <mbr_check+0xfc>
    ad90:	e2840f77 	add	r0, r4, #476	; 0x1dc
    ad94:	e2800002 	add	r0, r0, #2, 0
    ad98:	ebffffdd 	bl	ad14 <mbr_partition_empty_raw>
    ad9c:	e3500000 	cmp	r0, #0, 0
    ada0:	0a000026 	beq	ae40 <mbr_check+0x11c>
    ada4:	e2840f7b 	add	r0, r4, #492	; 0x1ec
    ada8:	e2800002 	add	r0, r0, #2, 0
    adac:	ebffffd8 	bl	ad14 <mbr_partition_empty_raw>
    adb0:	e3500000 	cmp	r0, #0, 0
    adb4:	0a000029 	beq	ae60 <mbr_check+0x13c>
    adb8:	e28dd01c 	add	sp, sp, #28, 0
    adbc:	e8bd8030 	pop	{r4, r5, pc}
    adc0:	e59f30bc 	ldr	r3, [pc, #188]	; ae84 <mbr_check+0x160>
    adc4:	e58d3000 	str	r3, [sp]
    adc8:	e3a03009 	mov	r3, #9, 0
    adcc:	e59f20b4 	ldr	r2, [pc, #180]	; ae88 <mbr_check+0x164>
    add0:	e59f10b4 	ldr	r1, [pc, #180]	; ae8c <mbr_check+0x168>
    add4:	e59f00b4 	ldr	r0, [pc, #180]	; ae90 <mbr_check+0x16c>
    add8:	eb0007fd 	bl	cdd4 <printk>
    addc:	eb00092c 	bl	d294 <clean_reboot>
    ade0:	e59f30ac 	ldr	r3, [pc, #172]	; ae94 <mbr_check+0x170>
    ade4:	e58d3000 	str	r3, [sp]
    ade8:	e3a0300f 	mov	r3, #15, 0
    adec:	e59f2094 	ldr	r2, [pc, #148]	; ae88 <mbr_check+0x164>
    adf0:	e59f1094 	ldr	r1, [pc, #148]	; ae8c <mbr_check+0x168>
    adf4:	e59f0094 	ldr	r0, [pc, #148]	; ae90 <mbr_check+0x16c>
    adf8:	eb0007f5 	bl	cdd4 <printk>
    adfc:	eb000924 	bl	d294 <clean_reboot>
    ae00:	e59f3090 	ldr	r3, [pc, #144]	; ae98 <mbr_check+0x174>
    ae04:	e58d3000 	str	r3, [sp]
    ae08:	e3a03015 	mov	r3, #21, 0
    ae0c:	e59f2074 	ldr	r2, [pc, #116]	; ae88 <mbr_check+0x164>
    ae10:	e59f1074 	ldr	r1, [pc, #116]	; ae8c <mbr_check+0x168>
    ae14:	e59f0074 	ldr	r0, [pc, #116]	; ae90 <mbr_check+0x16c>
    ae18:	eb0007ed 	bl	cdd4 <printk>
    ae1c:	eb00091c 	bl	d294 <clean_reboot>
    ae20:	e59f3074 	ldr	r3, [pc, #116]	; ae9c <mbr_check+0x178>
    ae24:	e58d3000 	str	r3, [sp]
    ae28:	e3a03016 	mov	r3, #22, 0
    ae2c:	e59f2054 	ldr	r2, [pc, #84]	; ae88 <mbr_check+0x164>
    ae30:	e59f1054 	ldr	r1, [pc, #84]	; ae8c <mbr_check+0x168>
    ae34:	e59f0054 	ldr	r0, [pc, #84]	; ae90 <mbr_check+0x16c>
    ae38:	eb0007e5 	bl	cdd4 <printk>
    ae3c:	eb000914 	bl	d294 <clean_reboot>
    ae40:	e59f3058 	ldr	r3, [pc, #88]	; aea0 <mbr_check+0x17c>
    ae44:	e58d3000 	str	r3, [sp]
    ae48:	e3a03017 	mov	r3, #23, 0
    ae4c:	e59f2034 	ldr	r2, [pc, #52]	; ae88 <mbr_check+0x164>
    ae50:	e59f1034 	ldr	r1, [pc, #52]	; ae8c <mbr_check+0x168>
    ae54:	e59f0034 	ldr	r0, [pc, #52]	; ae90 <mbr_check+0x16c>
    ae58:	eb0007dd 	bl	cdd4 <printk>
    ae5c:	eb00090c 	bl	d294 <clean_reboot>
    ae60:	e59f303c 	ldr	r3, [pc, #60]	; aea4 <mbr_check+0x180>
    ae64:	e58d3000 	str	r3, [sp]
    ae68:	e3a03018 	mov	r3, #24, 0
    ae6c:	e59f2014 	ldr	r2, [pc, #20]	; ae88 <mbr_check+0x164>
    ae70:	e59f1014 	ldr	r1, [pc, #20]	; ae8c <mbr_check+0x168>
    ae74:	e59f0014 	ldr	r0, [pc, #20]	; ae90 <mbr_check+0x16c>
    ae78:	eb0007d5 	bl	cdd4 <printk>
    ae7c:	eb000904 	bl	d294 <clean_reboot>
    ae80:	0000aa55 	.word	0x0000aa55
    ae84:	0000eaec 	.word	0x0000eaec
    ae88:	0000ecb0 	.word	0x0000ecb0
    ae8c:	0000e850 	.word	0x0000e850
    ae90:	0000e120 	.word	0x0000e120
    ae94:	0000eb04 	.word	0x0000eb04
    ae98:	0000eb24 	.word	0x0000eb24
    ae9c:	0000eb50 	.word	0x0000eb50
    aea0:	0000eb78 	.word	0x0000eb78
    aea4:	0000eba0 	.word	0x0000eba0

0000aea8 <mbr_partition_print>:
    aea8:	e92d4030 	push	{r4, r5, lr}
    aeac:	e24dd00c 	sub	sp, sp, #12, 0
    aeb0:	e1a04001 	mov	r4, r1
    aeb4:	e1a01000 	mov	r1, r0
    aeb8:	e59f00fc 	ldr	r0, [pc, #252]	; afbc <mbr_partition_print+0x114>
    aebc:	eb0007c4 	bl	cdd4 <printk>
    aec0:	e5d43000 	ldrb	r3, [r4]
    aec4:	e3530000 	cmp	r3, #0, 0
    aec8:	0a000031 	beq	af94 <mbr_partition_print+0xec>
    aecc:	e59f10ec 	ldr	r1, [pc, #236]	; afc0 <mbr_partition_print+0x118>
    aed0:	e59f00ec 	ldr	r0, [pc, #236]	; afc4 <mbr_partition_print+0x11c>
    aed4:	eb0007be 	bl	cdd4 <printk>
    aed8:	e5d43001 	ldrb	r3, [r4, #1]
    aedc:	e5d41002 	ldrb	r1, [r4, #2]
    aee0:	e1833401 	orr	r3, r3, r1, lsl #8
    aee4:	e5d41003 	ldrb	r1, [r4, #3]
    aee8:	e1831801 	orr	r1, r3, r1, lsl #16
    aeec:	e59f00d4 	ldr	r0, [pc, #212]	; afc8 <mbr_partition_print+0x120>
    aef0:	eb0007b7 	bl	cdd4 <printk>
    aef4:	e5d45004 	ldrb	r5, [r4, #4]
    aef8:	e1a00005 	mov	r0, r5
    aefc:	ebfffe0b 	bl	a730 <mbr_part_str>
    af00:	e1a02000 	mov	r2, r0
    af04:	e1a01005 	mov	r1, r5
    af08:	e59f00bc 	ldr	r0, [pc, #188]	; afcc <mbr_partition_print+0x124>
    af0c:	eb0007b0 	bl	cdd4 <printk>
    af10:	e5d43005 	ldrb	r3, [r4, #5]
    af14:	e5d41006 	ldrb	r1, [r4, #6]
    af18:	e1833401 	orr	r3, r3, r1, lsl #8
    af1c:	e5d41007 	ldrb	r1, [r4, #7]
    af20:	e1831801 	orr	r1, r3, r1, lsl #16
    af24:	e59f00a4 	ldr	r0, [pc, #164]	; afd0 <mbr_partition_print+0x128>
    af28:	eb0007a9 	bl	cdd4 <printk>
    af2c:	e5d43008 	ldrb	r3, [r4, #8]
    af30:	e5d41009 	ldrb	r1, [r4, #9]
    af34:	e1833401 	orr	r3, r3, r1, lsl #8
    af38:	e5d4100a 	ldrb	r1, [r4, #10]
    af3c:	e1833801 	orr	r3, r3, r1, lsl #16
    af40:	e5d4100b 	ldrb	r1, [r4, #11]
    af44:	e1831c01 	orr	r1, r3, r1, lsl #24
    af48:	e59f0084 	ldr	r0, [pc, #132]	; afd4 <mbr_partition_print+0x12c>
    af4c:	eb0007a0 	bl	cdd4 <printk>
    af50:	e5d4100c 	ldrb	r1, [r4, #12]
    af54:	e5d4300d 	ldrb	r3, [r4, #13]
    af58:	e1811403 	orr	r1, r1, r3, lsl #8
    af5c:	e5d4300e 	ldrb	r3, [r4, #14]
    af60:	e1811803 	orr	r1, r1, r3, lsl #16
    af64:	e5d4300f 	ldrb	r3, [r4, #15]
    af68:	e1811c03 	orr	r1, r1, r3, lsl #24
    af6c:	e1a02aa1 	lsr	r2, r1, #21
    af70:	e59f0060 	ldr	r0, [pc, #96]	; afd8 <mbr_partition_print+0x130>
    af74:	eb000796 	bl	cdd4 <printk>
    af78:	e5d43004 	ldrb	r3, [r4, #4]
    af7c:	e243300b 	sub	r3, r3, #11, 0
    af80:	e6ef3073 	uxtb	r3, r3
    af84:	e3530001 	cmp	r3, #1, 0
    af88:	8a000003 	bhi	af9c <mbr_partition_print+0xf4>
    af8c:	e28dd00c 	add	sp, sp, #12, 0
    af90:	e8bd8030 	pop	{r4, r5, pc}
    af94:	e59f1040 	ldr	r1, [pc, #64]	; afdc <mbr_partition_print+0x134>
    af98:	eaffffcc 	b	aed0 <mbr_partition_print+0x28>
    af9c:	e59f303c 	ldr	r3, [pc, #60]	; afe0 <mbr_partition_print+0x138>
    afa0:	e58d3000 	str	r3, [sp]
    afa4:	e3a03061 	mov	r3, #97, 0	; 0x61
    afa8:	e59f2034 	ldr	r2, [pc, #52]	; afe4 <mbr_partition_print+0x13c>
    afac:	e59f1034 	ldr	r1, [pc, #52]	; afe8 <mbr_partition_print+0x140>
    afb0:	e59f0034 	ldr	r0, [pc, #52]	; afec <mbr_partition_print+0x144>
    afb4:	eb000786 	bl	cdd4 <printk>
    afb8:	eb0008b5 	bl	d294 <clean_reboot>
    afbc:	0000ebd8 	.word	0x0000ebd8
    afc0:	0000ebd0 	.word	0x0000ebd0
    afc4:	0000ebe0 	.word	0x0000ebe0
    afc8:	0000ebf4 	.word	0x0000ebf4
    afcc:	0000ec08 	.word	0x0000ec08
    afd0:	0000ec20 	.word	0x0000ec20
    afd4:	0000ec34 	.word	0x0000ec34
    afd8:	0000ec48 	.word	0x0000ec48
    afdc:	0000ebc8 	.word	0x0000ebc8
    afe0:	0000ec60 	.word	0x0000ec60
    afe4:	0000ecbc 	.word	0x0000ecbc
    afe8:	0000e850 	.word	0x0000e850
    afec:	0000e120 	.word	0x0000e120

0000aff0 <to_8dot3>:
    aff0:	e92d4010 	push	{r4, lr}
    aff4:	e1a04000 	mov	r4, r0
    aff8:	e3a02008 	mov	r2, #8, 0
    affc:	e1a01000 	mov	r1, r0
    b000:	e59f0070 	ldr	r0, [pc, #112]	; b078 <to_8dot3+0x88>
    b004:	eb000713 	bl	cc58 <memcpy>
    b008:	e3a03007 	mov	r3, #7, 0
    b00c:	ea000000 	b	b014 <to_8dot3+0x24>
    b010:	e2433001 	sub	r3, r3, #1, 0
    b014:	e3530000 	cmp	r3, #0, 0
    b018:	ba000004 	blt	b030 <to_8dot3+0x40>
    b01c:	e59f2054 	ldr	r2, [pc, #84]	; b078 <to_8dot3+0x88>
    b020:	e7d22003 	ldrb	r2, [r2, r3]
    b024:	e3520020 	cmp	r2, #32, 0
    b028:	0afffff8 	beq	b010 <to_8dot3+0x20>
    b02c:	e2833001 	add	r3, r3, #1, 0
    b030:	e2832001 	add	r2, r3, #1, 0
    b034:	e59f103c 	ldr	r1, [pc, #60]	; b078 <to_8dot3+0x88>
    b038:	e3a0002e 	mov	r0, #46, 0	; 0x2e
    b03c:	e7c10003 	strb	r0, [r1, r3]
    b040:	e3a03000 	mov	r3, #0, 0
    b044:	e3530002 	cmp	r3, #2, 0
    b048:	ca000006 	bgt	b068 <to_8dot3+0x78>
    b04c:	e0841003 	add	r1, r4, r3
    b050:	e5d10008 	ldrb	r0, [r1, #8]
    b054:	e59f101c 	ldr	r1, [pc, #28]	; b078 <to_8dot3+0x88>
    b058:	e7c10002 	strb	r0, [r1, r2]
    b05c:	e2833001 	add	r3, r3, #1, 0
    b060:	e2822001 	add	r2, r2, #1, 0
    b064:	eafffff6 	b	b044 <to_8dot3+0x54>
    b068:	e59f0008 	ldr	r0, [pc, #8]	; b078 <to_8dot3+0x88>
    b06c:	e3a03000 	mov	r3, #0, 0
    b070:	e7c03002 	strb	r3, [r0, r2]
    b074:	e8bd8010 	pop	{r4, pc}
    b078:	00010720 	.word	0x00010720

0000b07c <add_nul>:
    b07c:	e92d4070 	push	{r4, r5, r6, lr}
    b080:	e1a01000 	mov	r1, r0
    b084:	e59f501c 	ldr	r5, [pc, #28]	; b0a8 <add_nul+0x2c>
    b088:	e2854010 	add	r4, r5, #16, 0
    b08c:	e3a0200b 	mov	r2, #11, 0
    b090:	e1a00004 	mov	r0, r4
    b094:	eb0006ef 	bl	cc58 <memcpy>
    b098:	e3a03000 	mov	r3, #0, 0
    b09c:	e5c5301b 	strb	r3, [r5, #27]
    b0a0:	e1a00004 	mov	r0, r4
    b0a4:	e8bd8070 	pop	{r4, r5, r6, pc}
    b0a8:	00010720 	.word	0x00010720

0000b0ac <fat32_volume_id_check>:
    b0ac:	e52de004 	push	{lr}		; (str lr, [sp, #-4]!)
    b0b0:	e24dd00c 	sub	sp, sp, #12, 0
    b0b4:	e5d0300b 	ldrb	r3, [r0, #11]
    b0b8:	e5d0200c 	ldrb	r2, [r0, #12]
    b0bc:	e1833402 	orr	r3, r3, r2, lsl #8
    b0c0:	e3530c02 	cmp	r3, #512	; 0x200
    b0c4:	1a000035 	bne	b1a0 <fat32_volume_id_check+0xf4>
    b0c8:	e5d02010 	ldrb	r2, [r0, #16]
    b0cc:	e3520002 	cmp	r2, #2, 0
    b0d0:	1a00003a 	bne	b1c0 <fat32_volume_id_check+0x114>
    b0d4:	e5d021fe 	ldrb	r2, [r0, #510]	; 0x1fe
    b0d8:	e5d011ff 	ldrb	r1, [r0, #511]	; 0x1ff
    b0dc:	e1822401 	orr	r2, r2, r1, lsl #8
    b0e0:	e59f1238 	ldr	r1, [pc, #568]	; b320 <fat32_volume_id_check+0x274>
    b0e4:	e1520001 	cmp	r2, r1
    b0e8:	1a00003c 	bne	b1e0 <fat32_volume_id_check+0x134>
    b0ec:	e5d0200d 	ldrb	r2, [r0, #13]
    b0f0:	e2621000 	rsb	r1, r2, #0, 0
    b0f4:	e1d22001 	bics	r2, r2, r1
    b0f8:	1a000040 	bne	b200 <fat32_volume_id_check+0x154>
    b0fc:	e3530b01 	cmp	r3, #1024	; 0x400
    b100:	13530c02 	cmpne	r3, #512	; 0x200
    b104:	0a000002 	beq	b114 <fat32_volume_id_check+0x68>
    b108:	e3530a01 	cmp	r3, #4096	; 0x1000
    b10c:	13530b02 	cmpne	r3, #2048	; 0x800
    b110:	1a000042 	bne	b220 <fat32_volume_id_check+0x174>
    b114:	e5d03011 	ldrb	r3, [r0, #17]
    b118:	e5d02012 	ldrb	r2, [r0, #18]
    b11c:	e1933402 	orrs	r3, r3, r2, lsl #8
    b120:	1a000046 	bne	b240 <fat32_volume_id_check+0x194>
    b124:	e5d03013 	ldrb	r3, [r0, #19]
    b128:	e5d02014 	ldrb	r2, [r0, #20]
    b12c:	e1933402 	orrs	r3, r3, r2, lsl #8
    b130:	1a00004a 	bne	b260 <fat32_volume_id_check+0x1b4>
    b134:	e5d03016 	ldrb	r3, [r0, #22]
    b138:	e5d02017 	ldrb	r2, [r0, #23]
    b13c:	e1933402 	orrs	r3, r3, r2, lsl #8
    b140:	1a00004e 	bne	b280 <fat32_volume_id_check+0x1d4>
    b144:	e5d03020 	ldrb	r3, [r0, #32]
    b148:	e5d02021 	ldrb	r2, [r0, #33]	; 0x21
    b14c:	e1833402 	orr	r3, r3, r2, lsl #8
    b150:	e5d02022 	ldrb	r2, [r0, #34]	; 0x22
    b154:	e1833802 	orr	r3, r3, r2, lsl #16
    b158:	e5d02023 	ldrb	r2, [r0, #35]	; 0x23
    b15c:	e1933c02 	orrs	r3, r3, r2, lsl #24
    b160:	0a00004e 	beq	b2a0 <fat32_volume_id_check+0x1f4>
    b164:	e5d03030 	ldrb	r3, [r0, #48]	; 0x30
    b168:	e5d02031 	ldrb	r2, [r0, #49]	; 0x31
    b16c:	e1833402 	orr	r3, r3, r2, lsl #8
    b170:	e3530001 	cmp	r3, #1, 0
    b174:	1a000051 	bne	b2c0 <fat32_volume_id_check+0x214>
    b178:	e5d03032 	ldrb	r3, [r0, #50]	; 0x32
    b17c:	e5d02033 	ldrb	r2, [r0, #51]	; 0x33
    b180:	e1833402 	orr	r3, r3, r2, lsl #8
    b184:	e3530006 	cmp	r3, #6, 0
    b188:	1a000054 	bne	b2e0 <fat32_volume_id_check+0x234>
    b18c:	e5d03042 	ldrb	r3, [r0, #66]	; 0x42
    b190:	e3530029 	cmp	r3, #41, 0	; 0x29
    b194:	1a000059 	bne	b300 <fat32_volume_id_check+0x254>
    b198:	e28dd00c 	add	sp, sp, #12, 0
    b19c:	e49df004 	pop	{pc}		; (ldr pc, [sp], #4)
    b1a0:	e59f317c 	ldr	r3, [pc, #380]	; b324 <fat32_volume_id_check+0x278>
    b1a4:	e58d3000 	str	r3, [sp]
    b1a8:	e3a0300f 	mov	r3, #15, 0
    b1ac:	e59f2174 	ldr	r2, [pc, #372]	; b328 <fat32_volume_id_check+0x27c>
    b1b0:	e59f1174 	ldr	r1, [pc, #372]	; b32c <fat32_volume_id_check+0x280>
    b1b4:	e59f0174 	ldr	r0, [pc, #372]	; b330 <fat32_volume_id_check+0x284>
    b1b8:	eb000705 	bl	cdd4 <printk>
    b1bc:	eb000834 	bl	d294 <clean_reboot>
    b1c0:	e59f316c 	ldr	r3, [pc, #364]	; b334 <fat32_volume_id_check+0x288>
    b1c4:	e58d3000 	str	r3, [sp]
    b1c8:	e3a03010 	mov	r3, #16, 0
    b1cc:	e59f2154 	ldr	r2, [pc, #340]	; b328 <fat32_volume_id_check+0x27c>
    b1d0:	e59f1154 	ldr	r1, [pc, #340]	; b32c <fat32_volume_id_check+0x280>
    b1d4:	e59f0154 	ldr	r0, [pc, #340]	; b330 <fat32_volume_id_check+0x284>
    b1d8:	eb0006fd 	bl	cdd4 <printk>
    b1dc:	eb00082c 	bl	d294 <clean_reboot>
    b1e0:	e59f3150 	ldr	r3, [pc, #336]	; b338 <fat32_volume_id_check+0x28c>
    b1e4:	e58d3000 	str	r3, [sp]
    b1e8:	e3a03011 	mov	r3, #17, 0
    b1ec:	e59f2134 	ldr	r2, [pc, #308]	; b328 <fat32_volume_id_check+0x27c>
    b1f0:	e59f1134 	ldr	r1, [pc, #308]	; b32c <fat32_volume_id_check+0x280>
    b1f4:	e59f0134 	ldr	r0, [pc, #308]	; b330 <fat32_volume_id_check+0x284>
    b1f8:	eb0006f5 	bl	cdd4 <printk>
    b1fc:	eb000824 	bl	d294 <clean_reboot>
    b200:	e59f3134 	ldr	r3, [pc, #308]	; b33c <fat32_volume_id_check+0x290>
    b204:	e58d3000 	str	r3, [sp]
    b208:	e3a03013 	mov	r3, #19, 0
    b20c:	e59f2114 	ldr	r2, [pc, #276]	; b328 <fat32_volume_id_check+0x27c>
    b210:	e59f1114 	ldr	r1, [pc, #276]	; b32c <fat32_volume_id_check+0x280>
    b214:	e59f0114 	ldr	r0, [pc, #276]	; b330 <fat32_volume_id_check+0x284>
    b218:	eb0006ed 	bl	cdd4 <printk>
    b21c:	eb00081c 	bl	d294 <clean_reboot>
    b220:	e59f3118 	ldr	r3, [pc, #280]	; b340 <fat32_volume_id_check+0x294>
    b224:	e58d3000 	str	r3, [sp]
    b228:	e3a03015 	mov	r3, #21, 0
    b22c:	e59f20f4 	ldr	r2, [pc, #244]	; b328 <fat32_volume_id_check+0x27c>
    b230:	e59f10f4 	ldr	r1, [pc, #244]	; b32c <fat32_volume_id_check+0x280>
    b234:	e59f00f4 	ldr	r0, [pc, #244]	; b330 <fat32_volume_id_check+0x284>
    b238:	eb0006e5 	bl	cdd4 <printk>
    b23c:	eb000814 	bl	d294 <clean_reboot>
    b240:	e59f30fc 	ldr	r3, [pc, #252]	; b344 <fat32_volume_id_check+0x298>
    b244:	e58d3000 	str	r3, [sp]
    b248:	e3a03016 	mov	r3, #22, 0
    b24c:	e59f20d4 	ldr	r2, [pc, #212]	; b328 <fat32_volume_id_check+0x27c>
    b250:	e59f10d4 	ldr	r1, [pc, #212]	; b32c <fat32_volume_id_check+0x280>
    b254:	e59f00d4 	ldr	r0, [pc, #212]	; b330 <fat32_volume_id_check+0x284>
    b258:	eb0006dd 	bl	cdd4 <printk>
    b25c:	eb00080c 	bl	d294 <clean_reboot>
    b260:	e59f30e0 	ldr	r3, [pc, #224]	; b348 <fat32_volume_id_check+0x29c>
    b264:	e58d3000 	str	r3, [sp]
    b268:	e3a03018 	mov	r3, #24, 0
    b26c:	e59f20b4 	ldr	r2, [pc, #180]	; b328 <fat32_volume_id_check+0x27c>
    b270:	e59f10b4 	ldr	r1, [pc, #180]	; b32c <fat32_volume_id_check+0x280>
    b274:	e59f00b4 	ldr	r0, [pc, #180]	; b330 <fat32_volume_id_check+0x284>
    b278:	eb0006d5 	bl	cdd4 <printk>
    b27c:	eb000804 	bl	d294 <clean_reboot>
    b280:	e59f30c4 	ldr	r3, [pc, #196]	; b34c <fat32_volume_id_check+0x2a0>
    b284:	e58d3000 	str	r3, [sp]
    b288:	e3a0301b 	mov	r3, #27, 0
    b28c:	e59f2094 	ldr	r2, [pc, #148]	; b328 <fat32_volume_id_check+0x27c>
    b290:	e59f1094 	ldr	r1, [pc, #148]	; b32c <fat32_volume_id_check+0x280>
    b294:	e59f0094 	ldr	r0, [pc, #148]	; b330 <fat32_volume_id_check+0x284>
    b298:	eb0006cd 	bl	cdd4 <printk>
    b29c:	eb0007fc 	bl	d294 <clean_reboot>
    b2a0:	e59f30a8 	ldr	r3, [pc, #168]	; b350 <fat32_volume_id_check+0x2a4>
    b2a4:	e58d3000 	str	r3, [sp]
    b2a8:	e3a0301c 	mov	r3, #28, 0
    b2ac:	e59f2074 	ldr	r2, [pc, #116]	; b328 <fat32_volume_id_check+0x27c>
    b2b0:	e59f1074 	ldr	r1, [pc, #116]	; b32c <fat32_volume_id_check+0x280>
    b2b4:	e59f0074 	ldr	r0, [pc, #116]	; b330 <fat32_volume_id_check+0x284>
    b2b8:	eb0006c5 	bl	cdd4 <printk>
    b2bc:	eb0007f4 	bl	d294 <clean_reboot>
    b2c0:	e59f308c 	ldr	r3, [pc, #140]	; b354 <fat32_volume_id_check+0x2a8>
    b2c4:	e58d3000 	str	r3, [sp]
    b2c8:	e3a0301f 	mov	r3, #31, 0
    b2cc:	e59f2054 	ldr	r2, [pc, #84]	; b328 <fat32_volume_id_check+0x27c>
    b2d0:	e59f1054 	ldr	r1, [pc, #84]	; b32c <fat32_volume_id_check+0x280>
    b2d4:	e59f0054 	ldr	r0, [pc, #84]	; b330 <fat32_volume_id_check+0x284>
    b2d8:	eb0006bd 	bl	cdd4 <printk>
    b2dc:	eb0007ec 	bl	d294 <clean_reboot>
    b2e0:	e59f3070 	ldr	r3, [pc, #112]	; b358 <fat32_volume_id_check+0x2ac>
    b2e4:	e58d3000 	str	r3, [sp]
    b2e8:	e3a03020 	mov	r3, #32, 0
    b2ec:	e59f2034 	ldr	r2, [pc, #52]	; b328 <fat32_volume_id_check+0x27c>
    b2f0:	e59f1034 	ldr	r1, [pc, #52]	; b32c <fat32_volume_id_check+0x280>
    b2f4:	e59f0034 	ldr	r0, [pc, #52]	; b330 <fat32_volume_id_check+0x284>
    b2f8:	eb0006b5 	bl	cdd4 <printk>
    b2fc:	eb0007e4 	bl	d294 <clean_reboot>
    b300:	e59f3054 	ldr	r3, [pc, #84]	; b35c <fat32_volume_id_check+0x2b0>
    b304:	e58d3000 	str	r3, [sp]
    b308:	e3a03021 	mov	r3, #33, 0	; 0x21
    b30c:	e59f2014 	ldr	r2, [pc, #20]	; b328 <fat32_volume_id_check+0x27c>
    b310:	e59f1014 	ldr	r1, [pc, #20]	; b32c <fat32_volume_id_check+0x280>
    b314:	e59f0014 	ldr	r0, [pc, #20]	; b330 <fat32_volume_id_check+0x284>
    b318:	eb0006ad 	bl	cdd4 <printk>
    b31c:	eb0007dc 	bl	d294 <clean_reboot>
    b320:	0000aa55 	.word	0x0000aa55
    b324:	0000ecec 	.word	0x0000ecec
    b328:	0000f450 	.word	0x0000f450
    b32c:	0000ecd0 	.word	0x0000ecd0
    b330:	0000e120 	.word	0x0000e120
    b334:	0000ed04 	.word	0x0000ed04
    b338:	0000ed14 	.word	0x0000ed14
    b33c:	0000ed28 	.word	0x0000ed28
    b340:	0000ed44 	.word	0x0000ed44
    b344:	0000ed74 	.word	0x0000ed74
    b348:	0000ed84 	.word	0x0000ed84
    b34c:	0000ed94 	.word	0x0000ed94
    b350:	0000eda4 	.word	0x0000eda4
    b354:	0000edb8 	.word	0x0000edb8
    b358:	0000edd0 	.word	0x0000edd0
    b35c:	0000ede8 	.word	0x0000ede8

0000b360 <fat32_volume_id_print>:
    b360:	e92d4030 	push	{r4, r5, lr}
    b364:	e24dd02c 	sub	sp, sp, #44, 0	; 0x2c
    b368:	e1a04001 	mov	r4, r1
    b36c:	e1a01000 	mov	r1, r0
    b370:	e59f0240 	ldr	r0, [pc, #576]	; b5b8 <fat32_volume_id_print+0x258>
    b374:	eb000696 	bl	cdd4 <printk>
    b378:	e3a02008 	mov	r2, #8, 0
    b37c:	e2841003 	add	r1, r4, #3, 0
    b380:	e28d001c 	add	r0, sp, #28, 0
    b384:	eb000633 	bl	cc58 <memcpy>
    b388:	e3a05000 	mov	r5, #0, 0
    b38c:	e5cd5024 	strb	r5, [sp, #36]	; 0x24
    b390:	e3a0200b 	mov	r2, #11, 0
    b394:	e2841047 	add	r1, r4, #71, 0	; 0x47
    b398:	e28d0010 	add	r0, sp, #16, 0
    b39c:	eb00062d 	bl	cc58 <memcpy>
    b3a0:	e5cd5027 	strb	r5, [sp, #39]	; 0x27
    b3a4:	e3a02008 	mov	r2, #8, 0
    b3a8:	e2841052 	add	r1, r4, #82, 0	; 0x52
    b3ac:	e28d0004 	add	r0, sp, #4, 0
    b3b0:	eb000628 	bl	cc58 <memcpy>
    b3b4:	e5cd500c 	strb	r5, [sp, #12]
    b3b8:	e28d101c 	add	r1, sp, #28, 0
    b3bc:	e59f01f8 	ldr	r0, [pc, #504]	; b5bc <fat32_volume_id_print+0x25c>
    b3c0:	eb000683 	bl	cdd4 <printk>
    b3c4:	e5d4300b 	ldrb	r3, [r4, #11]
    b3c8:	e5d4100c 	ldrb	r1, [r4, #12]
    b3cc:	e1831401 	orr	r1, r3, r1, lsl #8
    b3d0:	e59f01e8 	ldr	r0, [pc, #488]	; b5c0 <fat32_volume_id_print+0x260>
    b3d4:	eb00067e 	bl	cdd4 <printk>
    b3d8:	e5d4100d 	ldrb	r1, [r4, #13]
    b3dc:	e59f01e0 	ldr	r0, [pc, #480]	; b5c4 <fat32_volume_id_print+0x264>
    b3e0:	eb00067b 	bl	cdd4 <printk>
    b3e4:	e5d4300e 	ldrb	r3, [r4, #14]
    b3e8:	e5d4100f 	ldrb	r1, [r4, #15]
    b3ec:	e1831401 	orr	r1, r3, r1, lsl #8
    b3f0:	e59f01d0 	ldr	r0, [pc, #464]	; b5c8 <fat32_volume_id_print+0x268>
    b3f4:	eb000676 	bl	cdd4 <printk>
    b3f8:	e5d41010 	ldrb	r1, [r4, #16]
    b3fc:	e59f01c8 	ldr	r0, [pc, #456]	; b5cc <fat32_volume_id_print+0x26c>
    b400:	eb000673 	bl	cdd4 <printk>
    b404:	e5d43011 	ldrb	r3, [r4, #17]
    b408:	e5d41012 	ldrb	r1, [r4, #18]
    b40c:	e1831401 	orr	r1, r3, r1, lsl #8
    b410:	e59f01b8 	ldr	r0, [pc, #440]	; b5d0 <fat32_volume_id_print+0x270>
    b414:	eb00066e 	bl	cdd4 <printk>
    b418:	e5d43013 	ldrb	r3, [r4, #19]
    b41c:	e5d41014 	ldrb	r1, [r4, #20]
    b420:	e1831401 	orr	r1, r3, r1, lsl #8
    b424:	e59f01a8 	ldr	r0, [pc, #424]	; b5d4 <fat32_volume_id_print+0x274>
    b428:	eb000669 	bl	cdd4 <printk>
    b42c:	e5d41015 	ldrb	r1, [r4, #21]
    b430:	e59f01a0 	ldr	r0, [pc, #416]	; b5d8 <fat32_volume_id_print+0x278>
    b434:	eb000666 	bl	cdd4 <printk>
    b438:	e5d43018 	ldrb	r3, [r4, #24]
    b43c:	e5d41019 	ldrb	r1, [r4, #25]
    b440:	e1831401 	orr	r1, r3, r1, lsl #8
    b444:	e59f0190 	ldr	r0, [pc, #400]	; b5dc <fat32_volume_id_print+0x27c>
    b448:	eb000661 	bl	cdd4 <printk>
    b44c:	e5d4301a 	ldrb	r3, [r4, #26]
    b450:	e5d4101b 	ldrb	r1, [r4, #27]
    b454:	e1831401 	orr	r1, r3, r1, lsl #8
    b458:	e59f0180 	ldr	r0, [pc, #384]	; b5e0 <fat32_volume_id_print+0x280>
    b45c:	eb00065c 	bl	cdd4 <printk>
    b460:	e5d4301c 	ldrb	r3, [r4, #28]
    b464:	e5d4101d 	ldrb	r1, [r4, #29]
    b468:	e1833401 	orr	r3, r3, r1, lsl #8
    b46c:	e5d4101e 	ldrb	r1, [r4, #30]
    b470:	e1833801 	orr	r3, r3, r1, lsl #16
    b474:	e5d4101f 	ldrb	r1, [r4, #31]
    b478:	e1831c01 	orr	r1, r3, r1, lsl #24
    b47c:	e59f0160 	ldr	r0, [pc, #352]	; b5e4 <fat32_volume_id_print+0x284>
    b480:	eb000653 	bl	cdd4 <printk>
    b484:	e5d43020 	ldrb	r3, [r4, #32]
    b488:	e5d41021 	ldrb	r1, [r4, #33]	; 0x21
    b48c:	e1833401 	orr	r3, r3, r1, lsl #8
    b490:	e5d41022 	ldrb	r1, [r4, #34]	; 0x22
    b494:	e1833801 	orr	r3, r3, r1, lsl #16
    b498:	e5d41023 	ldrb	r1, [r4, #35]	; 0x23
    b49c:	e1831c01 	orr	r1, r3, r1, lsl #24
    b4a0:	e59f0140 	ldr	r0, [pc, #320]	; b5e8 <fat32_volume_id_print+0x288>
    b4a4:	eb00064a 	bl	cdd4 <printk>
    b4a8:	e5d43024 	ldrb	r3, [r4, #36]	; 0x24
    b4ac:	e5d41025 	ldrb	r1, [r4, #37]	; 0x25
    b4b0:	e1833401 	orr	r3, r3, r1, lsl #8
    b4b4:	e5d41026 	ldrb	r1, [r4, #38]	; 0x26
    b4b8:	e1833801 	orr	r3, r3, r1, lsl #16
    b4bc:	e5d41027 	ldrb	r1, [r4, #39]	; 0x27
    b4c0:	e1831c01 	orr	r1, r3, r1, lsl #24
    b4c4:	e59f0120 	ldr	r0, [pc, #288]	; b5ec <fat32_volume_id_print+0x28c>
    b4c8:	eb000641 	bl	cdd4 <printk>
    b4cc:	e5d43028 	ldrb	r3, [r4, #40]	; 0x28
    b4d0:	e5d41029 	ldrb	r1, [r4, #41]	; 0x29
    b4d4:	e1831401 	orr	r1, r3, r1, lsl #8
    b4d8:	e59f0110 	ldr	r0, [pc, #272]	; b5f0 <fat32_volume_id_print+0x290>
    b4dc:	eb00063c 	bl	cdd4 <printk>
    b4e0:	e5d4302a 	ldrb	r3, [r4, #42]	; 0x2a
    b4e4:	e5d4102b 	ldrb	r1, [r4, #43]	; 0x2b
    b4e8:	e1831401 	orr	r1, r3, r1, lsl #8
    b4ec:	e59f0100 	ldr	r0, [pc, #256]	; b5f4 <fat32_volume_id_print+0x294>
    b4f0:	eb000637 	bl	cdd4 <printk>
    b4f4:	e5d4302c 	ldrb	r3, [r4, #44]	; 0x2c
    b4f8:	e5d4102d 	ldrb	r1, [r4, #45]	; 0x2d
    b4fc:	e1833401 	orr	r3, r3, r1, lsl #8
    b500:	e5d4102e 	ldrb	r1, [r4, #46]	; 0x2e
    b504:	e1833801 	orr	r3, r3, r1, lsl #16
    b508:	e5d4102f 	ldrb	r1, [r4, #47]	; 0x2f
    b50c:	e1831c01 	orr	r1, r3, r1, lsl #24
    b510:	e59f00e0 	ldr	r0, [pc, #224]	; b5f8 <fat32_volume_id_print+0x298>
    b514:	eb00062e 	bl	cdd4 <printk>
    b518:	e5d43030 	ldrb	r3, [r4, #48]	; 0x30
    b51c:	e5d41031 	ldrb	r1, [r4, #49]	; 0x31
    b520:	e1831401 	orr	r1, r3, r1, lsl #8
    b524:	e59f00d0 	ldr	r0, [pc, #208]	; b5fc <fat32_volume_id_print+0x29c>
    b528:	eb000629 	bl	cdd4 <printk>
    b52c:	e5d43032 	ldrb	r3, [r4, #50]	; 0x32
    b530:	e5d41033 	ldrb	r1, [r4, #51]	; 0x33
    b534:	e1831401 	orr	r1, r3, r1, lsl #8
    b538:	e59f00c0 	ldr	r0, [pc, #192]	; b600 <fat32_volume_id_print+0x2a0>
    b53c:	eb000624 	bl	cdd4 <printk>
    b540:	e5d41040 	ldrb	r1, [r4, #64]	; 0x40
    b544:	e59f00b8 	ldr	r0, [pc, #184]	; b604 <fat32_volume_id_print+0x2a4>
    b548:	eb000621 	bl	cdd4 <printk>
    b54c:	e5d41042 	ldrb	r1, [r4, #66]	; 0x42
    b550:	e59f00b0 	ldr	r0, [pc, #176]	; b608 <fat32_volume_id_print+0x2a8>
    b554:	eb00061e 	bl	cdd4 <printk>
    b558:	e5d43043 	ldrb	r3, [r4, #67]	; 0x43
    b55c:	e5d41044 	ldrb	r1, [r4, #68]	; 0x44
    b560:	e1833401 	orr	r3, r3, r1, lsl #8
    b564:	e5d41045 	ldrb	r1, [r4, #69]	; 0x45
    b568:	e1833801 	orr	r3, r3, r1, lsl #16
    b56c:	e5d41046 	ldrb	r1, [r4, #70]	; 0x46
    b570:	e1831c01 	orr	r1, r3, r1, lsl #24
    b574:	e59f0090 	ldr	r0, [pc, #144]	; b60c <fat32_volume_id_print+0x2ac>
    b578:	eb000615 	bl	cdd4 <printk>
    b57c:	e28d1010 	add	r1, sp, #16, 0
    b580:	e59f0088 	ldr	r0, [pc, #136]	; b610 <fat32_volume_id_print+0x2b0>
    b584:	eb000612 	bl	cdd4 <printk>
    b588:	e28d1004 	add	r1, sp, #4, 0
    b58c:	e59f0080 	ldr	r0, [pc, #128]	; b614 <fat32_volume_id_print+0x2b4>
    b590:	eb00060f 	bl	cdd4 <printk>
    b594:	e5d431fe 	ldrb	r3, [r4, #510]	; 0x1fe
    b598:	e5d411ff 	ldrb	r1, [r4, #511]	; 0x1ff
    b59c:	e1831401 	orr	r1, r3, r1, lsl #8
    b5a0:	e59f0070 	ldr	r0, [pc, #112]	; b618 <fat32_volume_id_print+0x2b8>
    b5a4:	eb00060a 	bl	cdd4 <printk>
    b5a8:	e1a00004 	mov	r0, r4
    b5ac:	ebfffebe 	bl	b0ac <fat32_volume_id_check>
    b5b0:	e28dd02c 	add	sp, sp, #44, 0	; 0x2c
    b5b4:	e8bd8030 	pop	{r4, r5, pc}
    b5b8:	0000ebd8 	.word	0x0000ebd8
    b5bc:	0000ee00 	.word	0x0000ee00
    b5c0:	0000ee1c 	.word	0x0000ee1c
    b5c4:	0000ee38 	.word	0x0000ee38
    b5c8:	0000ee54 	.word	0x0000ee54
    b5cc:	0000ee70 	.word	0x0000ee70
    b5d0:	0000ee8c 	.word	0x0000ee8c
    b5d4:	0000eea8 	.word	0x0000eea8
    b5d8:	0000eec4 	.word	0x0000eec4
    b5dc:	0000eee0 	.word	0x0000eee0
    b5e0:	0000eefc 	.word	0x0000eefc
    b5e4:	0000ef18 	.word	0x0000ef18
    b5e8:	0000ef34 	.word	0x0000ef34
    b5ec:	0000ef50 	.word	0x0000ef50
    b5f0:	0000ef6c 	.word	0x0000ef6c
    b5f4:	0000ef88 	.word	0x0000ef88
    b5f8:	0000efa4 	.word	0x0000efa4
    b5fc:	0000efc0 	.word	0x0000efc0
    b600:	0000efdc 	.word	0x0000efdc
    b604:	0000eff8 	.word	0x0000eff8
    b608:	0000f014 	.word	0x0000f014
    b60c:	0000f030 	.word	0x0000f030
    b610:	0000f04c 	.word	0x0000f04c
    b614:	0000f068 	.word	0x0000f068
    b618:	0000f084 	.word	0x0000f084

0000b61c <fat32_fsinfo_print>:
    b61c:	e92d4010 	push	{r4, lr}
    b620:	e1a04001 	mov	r4, r1
    b624:	e1a01000 	mov	r1, r0
    b628:	e59f0040 	ldr	r0, [pc, #64]	; b670 <fat32_fsinfo_print+0x54>
    b62c:	eb0005e8 	bl	cdd4 <printk>
    b630:	e5941000 	ldr	r1, [r4]
    b634:	e59f0038 	ldr	r0, [pc, #56]	; b674 <fat32_fsinfo_print+0x58>
    b638:	eb0005e5 	bl	cdd4 <printk>
    b63c:	e59411e4 	ldr	r1, [r4, #484]	; 0x1e4
    b640:	e59f0030 	ldr	r0, [pc, #48]	; b678 <fat32_fsinfo_print+0x5c>
    b644:	eb0005e2 	bl	cdd4 <printk>
    b648:	e59411fc 	ldr	r1, [r4, #508]	; 0x1fc
    b64c:	e59f0028 	ldr	r0, [pc, #40]	; b67c <fat32_fsinfo_print+0x60>
    b650:	eb0005df 	bl	cdd4 <printk>
    b654:	e59411e8 	ldr	r1, [r4, #488]	; 0x1e8
    b658:	e59f0020 	ldr	r0, [pc, #32]	; b680 <fat32_fsinfo_print+0x64>
    b65c:	eb0005dc 	bl	cdd4 <printk>
    b660:	e59411ec 	ldr	r1, [r4, #492]	; 0x1ec
    b664:	e59f0018 	ldr	r0, [pc, #24]	; b684 <fat32_fsinfo_print+0x68>
    b668:	eb0005d9 	bl	cdd4 <printk>
    b66c:	e8bd8010 	pop	{r4, pc}
    b670:	0000ebd8 	.word	0x0000ebd8
    b674:	0000f0a0 	.word	0x0000f0a0
    b678:	0000f0bc 	.word	0x0000f0bc
    b67c:	0000f0d8 	.word	0x0000f0d8
    b680:	0000f0f4 	.word	0x0000f0f4
    b684:	0000f110 	.word	0x0000f110

0000b688 <fat32_fsinfo_check>:
    b688:	e52de004 	push	{lr}		; (str lr, [sp, #-4]!)
    b68c:	e24dd00c 	sub	sp, sp, #12, 0
    b690:	e5902000 	ldr	r2, [r0]
    b694:	e59f308c 	ldr	r3, [pc, #140]	; b728 <fat32_fsinfo_check+0xa0>
    b698:	e1520003 	cmp	r2, r3
    b69c:	1a000009 	bne	b6c8 <fat32_fsinfo_check+0x40>
    b6a0:	e59021e4 	ldr	r2, [r0, #484]	; 0x1e4
    b6a4:	e59f3080 	ldr	r3, [pc, #128]	; b72c <fat32_fsinfo_check+0xa4>
    b6a8:	e1520003 	cmp	r2, r3
    b6ac:	1a00000d 	bne	b6e8 <fat32_fsinfo_check+0x60>
    b6b0:	e59021fc 	ldr	r2, [r0, #508]	; 0x1fc
    b6b4:	e59f3074 	ldr	r3, [pc, #116]	; b730 <fat32_fsinfo_check+0xa8>
    b6b8:	e1520003 	cmp	r2, r3
    b6bc:	1a000011 	bne	b708 <fat32_fsinfo_check+0x80>
    b6c0:	e28dd00c 	add	sp, sp, #12, 0
    b6c4:	e49df004 	pop	{pc}		; (ldr pc, [sp], #4)
    b6c8:	e59f3064 	ldr	r3, [pc, #100]	; b734 <fat32_fsinfo_check+0xac>
    b6cc:	e58d3000 	str	r3, [sp]
    b6d0:	e3a03057 	mov	r3, #87, 0	; 0x57
    b6d4:	e59f205c 	ldr	r2, [pc, #92]	; b738 <fat32_fsinfo_check+0xb0>
    b6d8:	e59f105c 	ldr	r1, [pc, #92]	; b73c <fat32_fsinfo_check+0xb4>
    b6dc:	e59f005c 	ldr	r0, [pc, #92]	; b740 <fat32_fsinfo_check+0xb8>
    b6e0:	eb0005bb 	bl	cdd4 <printk>
    b6e4:	eb0006ea 	bl	d294 <clean_reboot>
    b6e8:	e59f3054 	ldr	r3, [pc, #84]	; b744 <fat32_fsinfo_check+0xbc>
    b6ec:	e58d3000 	str	r3, [sp]
    b6f0:	e3a03058 	mov	r3, #88, 0	; 0x58
    b6f4:	e59f203c 	ldr	r2, [pc, #60]	; b738 <fat32_fsinfo_check+0xb0>
    b6f8:	e59f103c 	ldr	r1, [pc, #60]	; b73c <fat32_fsinfo_check+0xb4>
    b6fc:	e59f003c 	ldr	r0, [pc, #60]	; b740 <fat32_fsinfo_check+0xb8>
    b700:	eb0005b3 	bl	cdd4 <printk>
    b704:	eb0006e2 	bl	d294 <clean_reboot>
    b708:	e59f3038 	ldr	r3, [pc, #56]	; b748 <fat32_fsinfo_check+0xc0>
    b70c:	e58d3000 	str	r3, [sp]
    b710:	e3a03059 	mov	r3, #89, 0	; 0x59
    b714:	e59f201c 	ldr	r2, [pc, #28]	; b738 <fat32_fsinfo_check+0xb0>
    b718:	e59f101c 	ldr	r1, [pc, #28]	; b73c <fat32_fsinfo_check+0xb4>
    b71c:	e59f001c 	ldr	r0, [pc, #28]	; b740 <fat32_fsinfo_check+0xb8>
    b720:	eb0005ab 	bl	cdd4 <printk>
    b724:	eb0006da 	bl	d294 <clean_reboot>
    b728:	41615252 	.word	0x41615252
    b72c:	61417272 	.word	0x61417272
    b730:	aa550000 	.word	0xaa550000
    b734:	0000f12c 	.word	0x0000f12c
    b738:	0000f468 	.word	0x0000f468
    b73c:	0000ecd0 	.word	0x0000ecd0
    b740:	0000e120 	.word	0x0000e120
    b744:	0000f148 	.word	0x0000f148
    b748:	0000f164 	.word	0x0000f164

0000b74c <fat32_fat_entry_type_str>:
    b74c:	e370029f 	cmn	r0, #-268435447	; 0xf0000009
    b750:	0a000015 	beq	b7ac <fat32_fat_entry_type_str+0x60>
    b754:	8a000005 	bhi	b770 <fat32_fat_entry_type_str+0x24>
    b758:	e3500000 	cmp	r0, #0, 0
    b75c:	0a000014 	beq	b7b4 <fat32_fat_entry_type_str+0x68>
    b760:	e3500001 	cmp	r0, #1, 0
    b764:	1a000007 	bne	b788 <fat32_fat_entry_type_str+0x3c>
    b768:	e59f0054 	ldr	r0, [pc, #84]	; b7c4 <fat32_fat_entry_type_str+0x78>
    b76c:	e12fff1e 	bx	lr
    b770:	e370028f 	cmn	r0, #-268435448	; 0xf0000008
    b774:	0a000010 	beq	b7bc <fat32_fat_entry_type_str+0x70>
    b778:	e370027f 	cmn	r0, #-268435449	; 0xf0000007
    b77c:	1a000001 	bne	b788 <fat32_fat_entry_type_str+0x3c>
    b780:	e59f0040 	ldr	r0, [pc, #64]	; b7c8 <fat32_fat_entry_type_str+0x7c>
    b784:	e12fff1e 	bx	lr
    b788:	e52de004 	push	{lr}		; (str lr, [sp, #-4]!)
    b78c:	e24dd00c 	sub	sp, sp, #12, 0
    b790:	e58d0000 	str	r0, [sp]
    b794:	e3a03067 	mov	r3, #103, 0	; 0x67
    b798:	e59f202c 	ldr	r2, [pc, #44]	; b7cc <fat32_fat_entry_type_str+0x80>
    b79c:	e59f102c 	ldr	r1, [pc, #44]	; b7d0 <fat32_fat_entry_type_str+0x84>
    b7a0:	e59f002c 	ldr	r0, [pc, #44]	; b7d4 <fat32_fat_entry_type_str+0x88>
    b7a4:	eb00058a 	bl	cdd4 <printk>
    b7a8:	eb0006b9 	bl	d294 <clean_reboot>
    b7ac:	e59f0024 	ldr	r0, [pc, #36]	; b7d8 <fat32_fat_entry_type_str+0x8c>
    b7b0:	e12fff1e 	bx	lr
    b7b4:	e59f0020 	ldr	r0, [pc, #32]	; b7dc <fat32_fat_entry_type_str+0x90>
    b7b8:	e12fff1e 	bx	lr
    b7bc:	e59f001c 	ldr	r0, [pc, #28]	; b7e0 <fat32_fat_entry_type_str+0x94>
    b7c0:	e12fff1e 	bx	lr
    b7c4:	0000f1ac 	.word	0x0000f1ac
    b7c8:	0000f1c0 	.word	0x0000f1c0
    b7cc:	0000f47c 	.word	0x0000f47c
    b7d0:	0000ecd0 	.word	0x0000ecd0
    b7d4:	0000f1d0 	.word	0x0000f1d0
    b7d8:	0000f180 	.word	0x0000f180
    b7dc:	0000f18c 	.word	0x0000f18c
    b7e0:	0000f19c 	.word	0x0000f19c

0000b7e4 <fat32_fat_entry_type>:
    b7e4:	e3c0020f 	bic	r0, r0, #-268435456	; 0xf0000000
    b7e8:	e3500001 	cmp	r0, #1, 0
    b7ec:	912fff1e 	bxls	lr
    b7f0:	e370029f 	cmn	r0, #-268435447	; 0xf0000009
    b7f4:	012fff1e 	bxeq	lr
    b7f8:	e2402002 	sub	r2, r0, #2, 0
    b7fc:	e59f3074 	ldr	r3, [pc, #116]	; b878 <fat32_fat_entry_type+0x94>
    b800:	e1520003 	cmp	r2, r3
    b804:	9a000019 	bls	b870 <fat32_fat_entry_type+0x8c>
    b808:	e52de004 	push	{lr}		; (str lr, [sp, #-4]!)
    b80c:	e24dd00c 	sub	sp, sp, #12, 0
    b810:	e280320f 	add	r3, r0, #-268435456	; 0xf0000000
    b814:	e2833010 	add	r3, r3, #16, 0
    b818:	e3530006 	cmp	r3, #6, 0
    b81c:	9a000005 	bls	b838 <fat32_fat_entry_type+0x54>
    b820:	e280328f 	add	r3, r0, #-268435448	; 0xf0000008
    b824:	e3530007 	cmp	r3, #7, 0
    b828:	8a000009 	bhi	b854 <fat32_fat_entry_type+0x70>
    b82c:	e3e0027f 	mvn	r0, #-268435449	; 0xf0000007
    b830:	e28dd00c 	add	sp, sp, #12, 0
    b834:	e49df004 	pop	{pc}		; (ldr pc, [sp], #4)
    b838:	e58d0000 	str	r0, [sp]
    b83c:	e3a03077 	mov	r3, #119, 0	; 0x77
    b840:	e59f2034 	ldr	r2, [pc, #52]	; b87c <fat32_fat_entry_type+0x98>
    b844:	e59f1034 	ldr	r1, [pc, #52]	; b880 <fat32_fat_entry_type+0x9c>
    b848:	e59f0034 	ldr	r0, [pc, #52]	; b884 <fat32_fat_entry_type+0xa0>
    b84c:	eb000560 	bl	cdd4 <printk>
    b850:	eb00068f 	bl	d294 <clean_reboot>
    b854:	e58d0000 	str	r0, [sp]
    b858:	e3a0307a 	mov	r3, #122, 0	; 0x7a
    b85c:	e59f2018 	ldr	r2, [pc, #24]	; b87c <fat32_fat_entry_type+0x98>
    b860:	e59f1018 	ldr	r1, [pc, #24]	; b880 <fat32_fat_entry_type+0x9c>
    b864:	e59f001c 	ldr	r0, [pc, #28]	; b888 <fat32_fat_entry_type+0xa4>
    b868:	eb000559 	bl	cdd4 <printk>
    b86c:	eb000688 	bl	d294 <clean_reboot>
    b870:	e3e0026f 	mvn	r0, #-268435450	; 0xf0000006
    b874:	e12fff1e 	bx	lr
    b878:	0fffffed 	.word	0x0fffffed
    b87c:	0000f498 	.word	0x0000f498
    b880:	0000ecd0 	.word	0x0000ecd0
    b884:	0000f1f0 	.word	0x0000f1f0
    b888:	0000f214 	.word	0x0000f214

0000b88c <fat32_dirent_free>:
    b88c:	e5d03000 	ldrb	r3, [r0]
    b890:	e5d0200b 	ldrb	r2, [r0, #11]
    b894:	e352000f 	cmp	r2, #15, 0
    b898:	0a000005 	beq	b8b4 <fat32_dirent_free+0x28>
    b89c:	e35300e5 	cmp	r3, #229, 0	; 0xe5
    b8a0:	13a00000 	movne	r0, #0, 0
    b8a4:	03a00001 	moveq	r0, #1, 0
    b8a8:	e3530000 	cmp	r3, #0, 0
    b8ac:	03a00001 	moveq	r0, #1, 0
    b8b0:	e12fff1e 	bx	lr
    b8b4:	e92d4010 	push	{r4, lr}
    b8b8:	eb00024f 	bl	c1fc <fat32_dirent_is_deleted_lfn>
    b8bc:	e8bd8010 	pop	{r4, pc}

0000b8c0 <fat32_dir_attr_str>:
    b8c0:	e350000f 	cmp	r0, #15, 0
    b8c4:	0a000063 	beq	ba58 <fat32_dir_attr_str+0x198>
    b8c8:	e92d4010 	push	{r4, lr}
    b8cc:	e24dd008 	sub	sp, sp, #8, 0
    b8d0:	e1a04000 	mov	r4, r0
    b8d4:	e59f3184 	ldr	r3, [pc, #388]	; ba60 <fat32_dir_attr_str+0x1a0>
    b8d8:	e3a02000 	mov	r2, #0, 0
    b8dc:	e5c32020 	strb	r2, [r3, #32]
    b8e0:	0a00002a 	beq	b990 <fat32_dir_attr_str+0xd0>
    b8e4:	e2003001 	and	r3, r0, #1, 0
    b8e8:	e3530000 	cmp	r3, #0, 0
    b8ec:	1a00002b 	bne	b9a0 <fat32_dir_attr_str+0xe0>
    b8f0:	e354000f 	cmp	r4, #15, 0
    b8f4:	0a00002e 	beq	b9b4 <fat32_dir_attr_str+0xf4>
    b8f8:	e3140002 	tst	r4, #2, 0
    b8fc:	13a03001 	movne	r3, #1, 0
    b900:	03a03000 	moveq	r3, #0, 0
    b904:	e3530000 	cmp	r3, #0, 0
    b908:	1a00002d 	bne	b9c4 <fat32_dir_attr_str+0x104>
    b90c:	e2443004 	sub	r3, r4, #4, 0
    b910:	e353001c 	cmp	r3, #28, 0
    b914:	979ff103 	ldrls	pc, [pc, r3, lsl #2]
    b918:	ea000047 	b	ba3c <fat32_dir_attr_str+0x17c>
    b91c:	0000b9d8 	.word	0x0000b9d8
    b920:	0000ba3c 	.word	0x0000ba3c
    b924:	0000ba3c 	.word	0x0000ba3c
    b928:	0000ba3c 	.word	0x0000ba3c
    b92c:	0000b9f4 	.word	0x0000b9f4
    b930:	0000ba3c 	.word	0x0000ba3c
    b934:	0000ba3c 	.word	0x0000ba3c
    b938:	0000ba3c 	.word	0x0000ba3c
    b93c:	0000ba3c 	.word	0x0000ba3c
    b940:	0000ba3c 	.word	0x0000ba3c
    b944:	0000ba3c 	.word	0x0000ba3c
    b948:	0000ba3c 	.word	0x0000ba3c
    b94c:	0000ba0c 	.word	0x0000ba0c
    b950:	0000ba3c 	.word	0x0000ba3c
    b954:	0000ba3c 	.word	0x0000ba3c
    b958:	0000ba3c 	.word	0x0000ba3c
    b95c:	0000ba3c 	.word	0x0000ba3c
    b960:	0000ba3c 	.word	0x0000ba3c
    b964:	0000ba3c 	.word	0x0000ba3c
    b968:	0000ba3c 	.word	0x0000ba3c
    b96c:	0000ba3c 	.word	0x0000ba3c
    b970:	0000ba3c 	.word	0x0000ba3c
    b974:	0000ba3c 	.word	0x0000ba3c
    b978:	0000ba3c 	.word	0x0000ba3c
    b97c:	0000ba3c 	.word	0x0000ba3c
    b980:	0000ba3c 	.word	0x0000ba3c
    b984:	0000ba3c 	.word	0x0000ba3c
    b988:	0000ba3c 	.word	0x0000ba3c
    b98c:	0000ba24 	.word	0x0000ba24
    b990:	e3500001 	cmp	r0, #1, 0
    b994:	13a03000 	movne	r3, #0, 0
    b998:	03a03001 	moveq	r3, #1, 0
    b99c:	eaffffd1 	b	b8e8 <fat32_dir_attr_str+0x28>
    b9a0:	e59f10bc 	ldr	r1, [pc, #188]	; ba64 <fat32_dir_attr_str+0x1a4>
    b9a4:	e59f00bc 	ldr	r0, [pc, #188]	; ba68 <fat32_dir_attr_str+0x1a8>
    b9a8:	eb000612 	bl	d1f8 <strcat>
    b9ac:	e3c44001 	bic	r4, r4, #1, 0
    b9b0:	eaffffce 	b	b8f0 <fat32_dir_attr_str+0x30>
    b9b4:	e3540002 	cmp	r4, #2, 0
    b9b8:	13a03000 	movne	r3, #0, 0
    b9bc:	03a03001 	moveq	r3, #1, 0
    b9c0:	eaffffcf 	b	b904 <fat32_dir_attr_str+0x44>
    b9c4:	e59f10a0 	ldr	r1, [pc, #160]	; ba6c <fat32_dir_attr_str+0x1ac>
    b9c8:	e59f0098 	ldr	r0, [pc, #152]	; ba68 <fat32_dir_attr_str+0x1a8>
    b9cc:	eb000609 	bl	d1f8 <strcat>
    b9d0:	e3c44002 	bic	r4, r4, #2, 0
    b9d4:	eaffffcc 	b	b90c <fat32_dir_attr_str+0x4c>
    b9d8:	e59f4088 	ldr	r4, [pc, #136]	; ba68 <fat32_dir_attr_str+0x1a8>
    b9dc:	e59f108c 	ldr	r1, [pc, #140]	; ba70 <fat32_dir_attr_str+0x1b0>
    b9e0:	e1a00004 	mov	r0, r4
    b9e4:	eb000603 	bl	d1f8 <strcat>
    b9e8:	e1a00004 	mov	r0, r4
    b9ec:	e28dd008 	add	sp, sp, #8, 0
    b9f0:	e8bd8010 	pop	{r4, pc}
    b9f4:	e59f406c 	ldr	r4, [pc, #108]	; ba68 <fat32_dir_attr_str+0x1a8>
    b9f8:	e59f1074 	ldr	r1, [pc, #116]	; ba74 <fat32_dir_attr_str+0x1b4>
    b9fc:	e1a00004 	mov	r0, r4
    ba00:	eb0005fc 	bl	d1f8 <strcat>
    ba04:	e1a00004 	mov	r0, r4
    ba08:	eafffff7 	b	b9ec <fat32_dir_attr_str+0x12c>
    ba0c:	e59f4054 	ldr	r4, [pc, #84]	; ba68 <fat32_dir_attr_str+0x1a8>
    ba10:	e59f1060 	ldr	r1, [pc, #96]	; ba78 <fat32_dir_attr_str+0x1b8>
    ba14:	e1a00004 	mov	r0, r4
    ba18:	eb0005f6 	bl	d1f8 <strcat>
    ba1c:	e1a00004 	mov	r0, r4
    ba20:	eafffff1 	b	b9ec <fat32_dir_attr_str+0x12c>
    ba24:	e59f403c 	ldr	r4, [pc, #60]	; ba68 <fat32_dir_attr_str+0x1a8>
    ba28:	e59f104c 	ldr	r1, [pc, #76]	; ba7c <fat32_dir_attr_str+0x1bc>
    ba2c:	e1a00004 	mov	r0, r4
    ba30:	eb0005f0 	bl	d1f8 <strcat>
    ba34:	e1a00004 	mov	r0, r4
    ba38:	eaffffeb 	b	b9ec <fat32_dir_attr_str+0x12c>
    ba3c:	e58d4000 	str	r4, [sp]
    ba40:	e3a0309d 	mov	r3, #157, 0	; 0x9d
    ba44:	e59f2034 	ldr	r2, [pc, #52]	; ba80 <fat32_dir_attr_str+0x1c0>
    ba48:	e59f1034 	ldr	r1, [pc, #52]	; ba84 <fat32_dir_attr_str+0x1c4>
    ba4c:	e59f0034 	ldr	r0, [pc, #52]	; ba88 <fat32_dir_attr_str+0x1c8>
    ba50:	eb0004df 	bl	cdd4 <printk>
    ba54:	eb00060e 	bl	d294 <clean_reboot>
    ba58:	e59f002c 	ldr	r0, [pc, #44]	; ba8c <fat32_dir_attr_str+0x1cc>
    ba5c:	e12fff1e 	bx	lr
    ba60:	00010720 	.word	0x00010720
    ba64:	0000f250 	.word	0x0000f250
    ba68:	00010740 	.word	0x00010740
    ba6c:	0000f254 	.word	0x0000f254
    ba70:	0000f25c 	.word	0x0000f25c
    ba74:	0000f26c 	.word	0x0000f26c
    ba78:	0000f27c 	.word	0x0000f27c
    ba7c:	0000f284 	.word	0x0000f284
    ba80:	0000f4b0 	.word	0x0000f4b0
    ba84:	0000ecd0 	.word	0x0000ecd0
    ba88:	0000f290 	.word	0x0000f290
    ba8c:	0000f240 	.word	0x0000f240

0000ba90 <fat32_dirent_name>:
    ba90:	e92d4010 	push	{r4, lr}
    ba94:	e1a04001 	mov	r4, r1
    ba98:	ebfffd54 	bl	aff0 <to_8dot3>
    ba9c:	e1a01000 	mov	r1, r0
    baa0:	e1a00004 	mov	r0, r4
    baa4:	eb0005eb 	bl	d258 <strcpy>
    baa8:	e8bd8010 	pop	{r4, pc}

0000baac <fat32_is_valid_name>:
    baac:	e92d4010 	push	{r4, lr}
    bab0:	e1a04000 	mov	r4, r0
    bab4:	eb0005ef 	bl	d278 <strlen>
    bab8:	e1a0c000 	mov	ip, r0
    babc:	e1a01000 	mov	r1, r0
    bac0:	e3a03000 	mov	r3, #0, 0
    bac4:	e1a00003 	mov	r0, r3
    bac8:	ea000000 	b	bad0 <fat32_is_valid_name+0x24>
    bacc:	e2833001 	add	r3, r3, #1, 0
    bad0:	e1530001 	cmp	r3, r1
    bad4:	aa000003 	bge	bae8 <fat32_is_valid_name+0x3c>
    bad8:	e7d42003 	ldrb	r2, [r4, r3]
    badc:	e352002e 	cmp	r2, #46, 0	; 0x2e
    bae0:	03a00001 	moveq	r0, #1, 0
    bae4:	eafffff8 	b	bacc <fat32_is_valid_name+0x20>
    bae8:	e3500000 	cmp	r0, #0, 0
    baec:	0a000019 	beq	bb58 <fat32_is_valid_name+0xac>
    baf0:	e35c000c 	cmp	ip, #12, 0
    baf4:	ca00002a 	bgt	bba4 <fat32_is_valid_name+0xf8>
    baf8:	e35c0004 	cmp	ip, #4, 0
    bafc:	da00002a 	ble	bbac <fat32_is_valid_name+0x100>
    bb00:	e084c00c 	add	ip, r4, ip
    bb04:	e55c3004 	ldrb	r3, [ip, #-4]
    bb08:	e353002e 	cmp	r3, #46, 0	; 0x2e
    bb0c:	1a000028 	bne	bbb4 <fat32_is_valid_name+0x108>
    bb10:	e3a02000 	mov	r2, #0, 0
    bb14:	ea000000 	b	bb1c <fat32_is_valid_name+0x70>
    bb18:	e2822001 	add	r2, r2, #1, 0
    bb1c:	e1520001 	cmp	r2, r1
    bb20:	a8bd8010 	popge	{r4, pc}
    bb24:	e7d43002 	ldrb	r3, [r4, r2]
    bb28:	e243c041 	sub	ip, r3, #65, 0	; 0x41
    bb2c:	e6efc07c 	uxtb	ip, ip
    bb30:	e2433030 	sub	r3, r3, #48, 0	; 0x30
    bb34:	e6ef3073 	uxtb	r3, r3
    bb38:	e35c0019 	cmp	ip, #25, 0
    bb3c:	83530009 	cmphi	r3, #9, 0
    bb40:	9afffff4 	bls	bb18 <fat32_is_valid_name+0x6c>
    bb44:	e2413004 	sub	r3, r1, #4, 0
    bb48:	e1530002 	cmp	r3, r2
    bb4c:	0afffff1 	beq	bb18 <fat32_is_valid_name+0x6c>
    bb50:	e3a00000 	mov	r0, #0, 0
    bb54:	e8bd8010 	pop	{r4, pc}
    bb58:	e35c0008 	cmp	ip, #8, 0
    bb5c:	c8bd8010 	popgt	{r4, pc}
    bb60:	e35c0000 	cmp	ip, #0, 0
    bb64:	d8bd8010 	pople	{r4, pc}
    bb68:	e1a02000 	mov	r2, r0
    bb6c:	e1520001 	cmp	r2, r1
    bb70:	aa000009 	bge	bb9c <fat32_is_valid_name+0xf0>
    bb74:	e7d43002 	ldrb	r3, [r4, r2]
    bb78:	e243c041 	sub	ip, r3, #65, 0	; 0x41
    bb7c:	e6efc07c 	uxtb	ip, ip
    bb80:	e2433030 	sub	r3, r3, #48, 0	; 0x30
    bb84:	e6ef3073 	uxtb	r3, r3
    bb88:	e35c0019 	cmp	ip, #25, 0
    bb8c:	83530009 	cmphi	r3, #9, 0
    bb90:	88bd8010 	pophi	{r4, pc}
    bb94:	e2822001 	add	r2, r2, #1, 0
    bb98:	eafffff3 	b	bb6c <fat32_is_valid_name+0xc0>
    bb9c:	e3a00001 	mov	r0, #1, 0
    bba0:	e8bd8010 	pop	{r4, pc}
    bba4:	e3a00000 	mov	r0, #0, 0
    bba8:	e8bd8010 	pop	{r4, pc}
    bbac:	e3a00000 	mov	r0, #0, 0
    bbb0:	e8bd8010 	pop	{r4, pc}
    bbb4:	e3a00000 	mov	r0, #0, 0
    bbb8:	e8bd8010 	pop	{r4, pc}

0000bbbc <fat32_dirent_set_name>:
    bbbc:	e92d41f0 	push	{r4, r5, r6, r7, r8, lr}
    bbc0:	e24dd008 	sub	sp, sp, #8, 0
    bbc4:	e1a07000 	mov	r7, r0
    bbc8:	e1a04001 	mov	r4, r1
    bbcc:	e1a00001 	mov	r0, r1
    bbd0:	eb0005a8 	bl	d278 <strlen>
    bbd4:	e1a06000 	mov	r6, r0
    bbd8:	e1a05000 	mov	r5, r0
    bbdc:	e1a00004 	mov	r0, r4
    bbe0:	ebffffb1 	bl	baac <fat32_is_valid_name>
    bbe4:	e3500000 	cmp	r0, #0, 0
    bbe8:	13a03000 	movne	r3, #0, 0
    bbec:	11a08003 	movne	r8, r3
    bbf0:	1a000008 	bne	bc18 <fat32_dirent_set_name+0x5c>
    bbf4:	e59f308c 	ldr	r3, [pc, #140]	; bc88 <fat32_dirent_set_name+0xcc>
    bbf8:	e58d3000 	str	r3, [sp]
    bbfc:	e3a030da 	mov	r3, #218, 0	; 0xda
    bc00:	e59f2084 	ldr	r2, [pc, #132]	; bc8c <fat32_dirent_set_name+0xd0>
    bc04:	e59f1084 	ldr	r1, [pc, #132]	; bc90 <fat32_dirent_set_name+0xd4>
    bc08:	e59f0084 	ldr	r0, [pc, #132]	; bc94 <fat32_dirent_set_name+0xd8>
    bc0c:	eb000470 	bl	cdd4 <printk>
    bc10:	eb00059f 	bl	d294 <clean_reboot>
    bc14:	e2833001 	add	r3, r3, #1, 0
    bc18:	e1530005 	cmp	r3, r5
    bc1c:	aa000003 	bge	bc30 <fat32_dirent_set_name+0x74>
    bc20:	e7d42003 	ldrb	r2, [r4, r3]
    bc24:	e352002e 	cmp	r2, #46, 0	; 0x2e
    bc28:	03a08001 	moveq	r8, #1, 0
    bc2c:	eafffff8 	b	bc14 <fat32_dirent_set_name+0x58>
    bc30:	e3a0200b 	mov	r2, #11, 0
    bc34:	e3a01020 	mov	r1, #32, 0
    bc38:	e1a00007 	mov	r0, r7
    bc3c:	eb00043c 	bl	cd34 <memset>
    bc40:	e3580000 	cmp	r8, #0, 0
    bc44:	0a00000a 	beq	bc74 <fat32_dirent_set_name+0xb8>
    bc48:	e2462004 	sub	r2, r6, #4, 0
    bc4c:	e1a01004 	mov	r1, r4
    bc50:	e1a00007 	mov	r0, r7
    bc54:	eb0003ff 	bl	cc58 <memcpy>
    bc58:	e2461003 	sub	r1, r6, #3, 0
    bc5c:	e3a02003 	mov	r2, #3, 0
    bc60:	e0841001 	add	r1, r4, r1
    bc64:	e2870008 	add	r0, r7, #8, 0
    bc68:	eb0003fa 	bl	cc58 <memcpy>
    bc6c:	e28dd008 	add	sp, sp, #8, 0
    bc70:	e8bd81f0 	pop	{r4, r5, r6, r7, r8, pc}
    bc74:	e1a02006 	mov	r2, r6
    bc78:	e1a01004 	mov	r1, r4
    bc7c:	e1a00007 	mov	r0, r7
    bc80:	eb0003f4 	bl	cc58 <memcpy>
    bc84:	eafffff8 	b	bc6c <fat32_dirent_set_name+0xb0>
    bc88:	0000f2b4 	.word	0x0000f2b4
    bc8c:	0000f4c4 	.word	0x0000f4c4
    bc90:	0000ecd0 	.word	0x0000ecd0
    bc94:	0000e120 	.word	0x0000e120

0000bc98 <fat32_dirent_print_helper>:
    bc98:	e92d4070 	push	{r4, r5, r6, lr}
    bc9c:	e1a06000 	mov	r6, r0
    bca0:	ebfffef9 	bl	b88c <fat32_dirent_free>
    bca4:	e2504000 	subs	r4, r0, #0, 0
    bca8:	1a00001c 	bne	bd20 <fat32_dirent_print_helper+0x88>
    bcac:	e5d6500b 	ldrb	r5, [r6, #11]
    bcb0:	e355000f 	cmp	r5, #15, 0
    bcb4:	0a00001c 	beq	bd2c <fat32_dirent_print_helper+0x94>
    bcb8:	e355000f 	cmp	r5, #15, 0
    bcbc:	0a00001d 	beq	bd38 <fat32_dirent_print_helper+0xa0>
    bcc0:	e1a032a5 	lsr	r3, r5, #5
    bcc4:	e2033001 	and	r3, r3, #1, 0
    bcc8:	e3530000 	cmp	r3, #0, 0
    bccc:	1a00001d 	bne	bd48 <fat32_dirent_print_helper+0xb0>
    bcd0:	e355000f 	cmp	r5, #15, 0
    bcd4:	0a00001e 	beq	bd54 <fat32_dirent_print_helper+0xbc>
    bcd8:	e1a03225 	lsr	r3, r5, #4
    bcdc:	e2033001 	and	r3, r3, #1, 0
    bce0:	e3530000 	cmp	r3, #0, 0
    bce4:	0a00001e 	beq	bd64 <fat32_dirent_print_helper+0xcc>
    bce8:	e59f01b0 	ldr	r0, [pc, #432]	; bea0 <fat32_dirent_print_helper+0x208>
    bcec:	eb000438 	bl	cdd4 <printk>
    bcf0:	e1a00006 	mov	r0, r6
    bcf4:	ebfffce0 	bl	b07c <add_nul>
    bcf8:	e1a05000 	mov	r5, r0
    bcfc:	e1a00006 	mov	r0, r6
    bd00:	ebfffcba 	bl	aff0 <to_8dot3>
    bd04:	e1a02000 	mov	r2, r0
    bd08:	e1a01005 	mov	r1, r5
    bd0c:	e59f0190 	ldr	r0, [pc, #400]	; bea4 <fat32_dirent_print_helper+0x20c>
    bd10:	eb00042f 	bl	cdd4 <printk>
    bd14:	e59f018c 	ldr	r0, [pc, #396]	; bea8 <fat32_dirent_print_helper+0x210>
    bd18:	eb00042d 	bl	cdd4 <printk>
    bd1c:	ea00002b 	b	bdd0 <fat32_dirent_print_helper+0x138>
    bd20:	e59f0184 	ldr	r0, [pc, #388]	; beac <fat32_dirent_print_helper+0x214>
    bd24:	eb00042a 	bl	cdd4 <printk>
    bd28:	e8bd8070 	pop	{r4, r5, r6, pc}
    bd2c:	e59f017c 	ldr	r0, [pc, #380]	; beb0 <fat32_dirent_print_helper+0x218>
    bd30:	eb000427 	bl	cdd4 <printk>
    bd34:	e8bd8070 	pop	{r4, r5, r6, pc}
    bd38:	e3550020 	cmp	r5, #32, 0
    bd3c:	13a03000 	movne	r3, #0, 0
    bd40:	03a03001 	moveq	r3, #1, 0
    bd44:	eaffffdf 	b	bcc8 <fat32_dirent_print_helper+0x30>
    bd48:	e59f0164 	ldr	r0, [pc, #356]	; beb4 <fat32_dirent_print_helper+0x21c>
    bd4c:	eb000420 	bl	cdd4 <printk>
    bd50:	eaffffe4 	b	bce8 <fat32_dirent_print_helper+0x50>
    bd54:	e3550010 	cmp	r5, #16, 0
    bd58:	13a03000 	movne	r3, #0, 0
    bd5c:	03a03001 	moveq	r3, #1, 0
    bd60:	eaffffde 	b	bce0 <fat32_dirent_print_helper+0x48>
    bd64:	e1a00005 	mov	r0, r5
    bd68:	ebfffed4 	bl	b8c0 <fat32_dir_attr_str>
    bd6c:	e1a02000 	mov	r2, r0
    bd70:	e1a01005 	mov	r1, r5
    bd74:	e59f013c 	ldr	r0, [pc, #316]	; beb8 <fat32_dirent_print_helper+0x220>
    bd78:	eb000415 	bl	cdd4 <printk>
    bd7c:	e5d6300b 	ldrb	r3, [r6, #11]
    bd80:	e353000f 	cmp	r3, #15, 0
    bd84:	0a000004 	beq	bd9c <fat32_dirent_print_helper+0x104>
    bd88:	e1a032a3 	lsr	r3, r3, #5
    bd8c:	e2033001 	and	r3, r3, #1, 0
    bd90:	e3530000 	cmp	r3, #0, 0
    bd94:	0affffd3 	beq	bce8 <fat32_dirent_print_helper+0x50>
    bd98:	e8bd8070 	pop	{r4, r5, r6, pc}
    bd9c:	e3530020 	cmp	r3, #32, 0
    bda0:	13a03000 	movne	r3, #0, 0
    bda4:	03a03001 	moveq	r3, #1, 0
    bda8:	eafffff8 	b	bd90 <fat32_dirent_print_helper+0xf8>
    bdac:	e59f00ec 	ldr	r0, [pc, #236]	; bea0 <fat32_dirent_print_helper+0x208>
    bdb0:	eb000407 	bl	cdd4 <printk>
    bdb4:	e59f0100 	ldr	r0, [pc, #256]	; bebc <fat32_dirent_print_helper+0x224>
    bdb8:	eb000405 	bl	cdd4 <printk>
    bdbc:	e7d61004 	ldrb	r1, [r6, r4]
    bdc0:	e1a02001 	mov	r2, r1
    bdc4:	e59f00f4 	ldr	r0, [pc, #244]	; bec0 <fat32_dirent_print_helper+0x228>
    bdc8:	eb000401 	bl	cdd4 <printk>
    bdcc:	e2844001 	add	r4, r4, #1, 0
    bdd0:	e354000a 	cmp	r4, #10, 0
    bdd4:	8a000002 	bhi	bde4 <fat32_dirent_print_helper+0x14c>
    bdd8:	e3540008 	cmp	r4, #8, 0
    bddc:	1afffff6 	bne	bdbc <fat32_dirent_print_helper+0x124>
    bde0:	eafffff1 	b	bdac <fat32_dirent_print_helper+0x114>
    bde4:	e59f00d8 	ldr	r0, [pc, #216]	; bec4 <fat32_dirent_print_helper+0x22c>
    bde8:	eb0003f9 	bl	cdd4 <printk>
    bdec:	e5d6100b 	ldrb	r1, [r6, #11]
    bdf0:	e59f00d0 	ldr	r0, [pc, #208]	; bec8 <fat32_dirent_print_helper+0x230>
    bdf4:	eb0003f6 	bl	cdd4 <printk>
    bdf8:	e5d6300b 	ldrb	r3, [r6, #11]
    bdfc:	e353000f 	cmp	r3, #15, 0
    be00:	0a000009 	beq	be2c <fat32_dirent_print_helper+0x194>
    be04:	e3130001 	tst	r3, #1, 0
    be08:	1a00001b 	bne	be7c <fat32_dirent_print_helper+0x1e4>
    be0c:	e5d6300b 	ldrb	r3, [r6, #11]
    be10:	e3130002 	tst	r3, #2, 0
    be14:	1a00001b 	bne	be88 <fat32_dirent_print_helper+0x1f0>
    be18:	e5d6300b 	ldrb	r3, [r6, #11]
    be1c:	e3130004 	tst	r3, #4, 0
    be20:	1a00001b 	bne	be94 <fat32_dirent_print_helper+0x1fc>
    be24:	e59f0074 	ldr	r0, [pc, #116]	; bea0 <fat32_dirent_print_helper+0x208>
    be28:	eb0003e9 	bl	cdd4 <printk>
    be2c:	e5d63014 	ldrb	r3, [r6, #20]
    be30:	e5d61015 	ldrb	r1, [r6, #21]
    be34:	e1831401 	orr	r1, r3, r1, lsl #8
    be38:	e59f008c 	ldr	r0, [pc, #140]	; becc <fat32_dirent_print_helper+0x234>
    be3c:	eb0003e4 	bl	cdd4 <printk>
    be40:	e5d6301a 	ldrb	r3, [r6, #26]
    be44:	e5d6101b 	ldrb	r1, [r6, #27]
    be48:	e1831401 	orr	r1, r3, r1, lsl #8
    be4c:	e59f007c 	ldr	r0, [pc, #124]	; bed0 <fat32_dirent_print_helper+0x238>
    be50:	eb0003df 	bl	cdd4 <printk>
    be54:	e5d6301c 	ldrb	r3, [r6, #28]
    be58:	e5d6101d 	ldrb	r1, [r6, #29]
    be5c:	e1833401 	orr	r3, r3, r1, lsl #8
    be60:	e5d6101e 	ldrb	r1, [r6, #30]
    be64:	e1833801 	orr	r3, r3, r1, lsl #16
    be68:	e5d6101f 	ldrb	r1, [r6, #31]
    be6c:	e1831c01 	orr	r1, r3, r1, lsl #24
    be70:	e59f005c 	ldr	r0, [pc, #92]	; bed4 <fat32_dirent_print_helper+0x23c>
    be74:	eb0003d6 	bl	cdd4 <printk>
    be78:	e8bd8070 	pop	{r4, r5, r6, pc}
    be7c:	e59f0054 	ldr	r0, [pc, #84]	; bed8 <fat32_dirent_print_helper+0x240>
    be80:	eb0003d3 	bl	cdd4 <printk>
    be84:	eaffffe0 	b	be0c <fat32_dirent_print_helper+0x174>
    be88:	e59f004c 	ldr	r0, [pc, #76]	; bedc <fat32_dirent_print_helper+0x244>
    be8c:	eb0003d0 	bl	cdd4 <printk>
    be90:	eaffffe0 	b	be18 <fat32_dirent_print_helper+0x180>
    be94:	e59f0044 	ldr	r0, [pc, #68]	; bee0 <fat32_dirent_print_helper+0x248>
    be98:	eb0003cd 	bl	cdd4 <printk>
    be9c:	eaffffe0 	b	be24 <fat32_dirent_print_helper+0x18c>
    bea0:	0000e770 	.word	0x0000e770
    bea4:	0000f348 	.word	0x0000f348
    bea8:	0000f36c 	.word	0x0000f36c
    beac:	0000f2d0 	.word	0x0000f2d0
    beb0:	0000f2ec 	.word	0x0000f2ec
    beb4:	0000f300 	.word	0x0000f300
    beb8:	0000f328 	.word	0x0000f328
    bebc:	0000f380 	.word	0x0000f380
    bec0:	0000f388 	.word	0x0000f388
    bec4:	0000f394 	.word	0x0000f394
    bec8:	0000f398 	.word	0x0000f398
    becc:	0000f3e4 	.word	0x0000f3e4
    bed0:	0000f3fc 	.word	0x0000f3fc
    bed4:	0000f414 	.word	0x0000f414
    bed8:	0000f3ac 	.word	0x0000f3ac
    bedc:	0000f3bc 	.word	0x0000f3bc
    bee0:	0000f3c8 	.word	0x0000f3c8

0000bee4 <fat32_dirent_print>:
    bee4:	e92d4010 	push	{r4, lr}
    bee8:	e1a04001 	mov	r4, r1
    beec:	e1a01000 	mov	r1, r0
    bef0:	e59f000c 	ldr	r0, [pc, #12]	; bf04 <fat32_dirent_print+0x20>
    bef4:	eb0003b6 	bl	cdd4 <printk>
    bef8:	e1a00004 	mov	r0, r4
    befc:	ebffff65 	bl	bc98 <fat32_dirent_print_helper>
    bf00:	e8bd8010 	pop	{r4, pc}
    bf04:	0000f42c 	.word	0x0000f42c

0000bf08 <fat32_dir_lookup>:
    bf08:	e92d41f0 	push	{r4, r5, r6, r7, r8, lr}
    bf0c:	e1a08000 	mov	r8, r0
    bf10:	e1a07001 	mov	r7, r1
    bf14:	e1a06002 	mov	r6, r2
    bf18:	e3a04000 	mov	r4, #0, 0
    bf1c:	ea000000 	b	bf24 <fat32_dir_lookup+0x1c>
    bf20:	e2844001 	add	r4, r4, #1, 0
    bf24:	e1540006 	cmp	r4, r6
    bf28:	2a00000e 	bcs	bf68 <fat32_dir_lookup+0x60>
    bf2c:	e0875284 	add	r5, r7, r4, lsl #5
    bf30:	e1a00005 	mov	r0, r5
    bf34:	ebfffe54 	bl	b88c <fat32_dirent_free>
    bf38:	e3500000 	cmp	r0, #0, 0
    bf3c:	1afffff7 	bne	bf20 <fat32_dir_lookup+0x18>
    bf40:	e5d5300b 	ldrb	r3, [r5, #11]
    bf44:	e353000f 	cmp	r3, #15, 0
    bf48:	0afffff4 	beq	bf20 <fat32_dir_lookup+0x18>
    bf4c:	e3a0200b 	mov	r2, #11, 0
    bf50:	e1a01005 	mov	r1, r5
    bf54:	e1a00008 	mov	r0, r8
    bf58:	eb000331 	bl	cc24 <memcmp>
    bf5c:	e3500000 	cmp	r0, #0, 0
    bf60:	1affffee 	bne	bf20 <fat32_dir_lookup+0x18>
    bf64:	ea000000 	b	bf6c <fat32_dir_lookup+0x64>
    bf68:	e3e04000 	mvn	r4, #0, 0
    bf6c:	e1a00004 	mov	r0, r4
    bf70:	e8bd81f0 	pop	{r4, r5, r6, r7, r8, pc}

0000bf74 <print_as_string>:
    bf74:	e92d4070 	push	{r4, r5, r6, lr}
    bf78:	e1a06001 	mov	r6, r1
    bf7c:	e1a05002 	mov	r5, r2
    bf80:	e1a01000 	mov	r1, r0
    bf84:	e59f002c 	ldr	r0, [pc, #44]	; bfb8 <print_as_string+0x44>
    bf88:	eb000391 	bl	cdd4 <printk>
    bf8c:	e3a04000 	mov	r4, #0, 0
    bf90:	e1540005 	cmp	r4, r5
    bf94:	aa000004 	bge	bfac <print_as_string+0x38>
    bf98:	e7d61004 	ldrb	r1, [r6, r4]
    bf9c:	e59f0018 	ldr	r0, [pc, #24]	; bfbc <print_as_string+0x48>
    bfa0:	eb00038b 	bl	cdd4 <printk>
    bfa4:	e2844001 	add	r4, r4, #1, 0
    bfa8:	eafffff8 	b	bf90 <print_as_string+0x1c>
    bfac:	e59f000c 	ldr	r0, [pc, #12]	; bfc0 <print_as_string+0x4c>
    bfb0:	eb000387 	bl	cdd4 <printk>
    bfb4:	e8bd8070 	pop	{r4, r5, r6, pc}
    bfb8:	0000f434 	.word	0x0000f434
    bfbc:	0000f438 	.word	0x0000f438
    bfc0:	0000e770 	.word	0x0000e770

0000bfc4 <print_bytes>:
    bfc4:	e92d41f0 	push	{r4, r5, r6, r7, r8, lr}
    bfc8:	e1a07001 	mov	r7, r1
    bfcc:	e1a06002 	mov	r6, r2
    bfd0:	e1a01000 	mov	r1, r0
    bfd4:	e59f0044 	ldr	r0, [pc, #68]	; c020 <print_bytes+0x5c>
    bfd8:	eb00037d 	bl	cdd4 <printk>
    bfdc:	e3a04000 	mov	r4, #0, 0
    bfe0:	ea000005 	b	bffc <print_bytes+0x38>
    bfe4:	e59f0038 	ldr	r0, [pc, #56]	; c024 <print_bytes+0x60>
    bfe8:	eb000379 	bl	cdd4 <printk>
    bfec:	e7d71005 	ldrb	r1, [r7, r5]
    bff0:	e59f0030 	ldr	r0, [pc, #48]	; c028 <print_bytes+0x64>
    bff4:	eb000376 	bl	cdd4 <printk>
    bff8:	e2844001 	add	r4, r4, #1, 0
    bffc:	e1540006 	cmp	r4, r6
    c000:	aa000003 	bge	c014 <print_bytes+0x50>
    c004:	e1a05004 	mov	r5, r4
    c008:	e314000f 	tst	r4, #15, 0
    c00c:	1afffff6 	bne	bfec <print_bytes+0x28>
    c010:	eafffff3 	b	bfe4 <print_bytes+0x20>
    c014:	e59f0010 	ldr	r0, [pc, #16]	; c02c <print_bytes+0x68>
    c018:	eb00036d 	bl	cdd4 <printk>
    c01c:	e8bd81f0 	pop	{r4, r5, r6, r7, r8, pc}
    c020:	0000f434 	.word	0x0000f434
    c024:	0000f43c 	.word	0x0000f43c
    c028:	0000f440 	.word	0x0000f440
    c02c:	0000e770 	.word	0x0000e770

0000c030 <print_words>:
    c030:	e92d41f0 	push	{r4, r5, r6, r7, r8, lr}
    c034:	e1a07001 	mov	r7, r1
    c038:	e1a06002 	mov	r6, r2
    c03c:	e1a01000 	mov	r1, r0
    c040:	e59f0044 	ldr	r0, [pc, #68]	; c08c <print_words+0x5c>
    c044:	eb000362 	bl	cdd4 <printk>
    c048:	e3a04000 	mov	r4, #0, 0
    c04c:	ea000005 	b	c068 <print_words+0x38>
    c050:	e59f0038 	ldr	r0, [pc, #56]	; c090 <print_words+0x60>
    c054:	eb00035e 	bl	cdd4 <printk>
    c058:	e7971105 	ldr	r1, [r7, r5, lsl #2]
    c05c:	e59f0030 	ldr	r0, [pc, #48]	; c094 <print_words+0x64>
    c060:	eb00035b 	bl	cdd4 <printk>
    c064:	e2844001 	add	r4, r4, #1, 0
    c068:	e1540006 	cmp	r4, r6
    c06c:	aa000003 	bge	c080 <print_words+0x50>
    c070:	e1a05004 	mov	r5, r4
    c074:	e314000f 	tst	r4, #15, 0
    c078:	1afffff6 	bne	c058 <print_words+0x28>
    c07c:	eafffff3 	b	c050 <print_words+0x20>
    c080:	e59f0010 	ldr	r0, [pc, #16]	; c098 <print_words+0x68>
    c084:	eb000352 	bl	cdd4 <printk>
    c088:	e8bd81f0 	pop	{r4, r5, r6, r7, r8, pc}
    c08c:	0000f434 	.word	0x0000f434
    c090:	0000f43c 	.word	0x0000f43c
    c094:	0000f448 	.word	0x0000f448
    c098:	0000e770 	.word	0x0000e770

0000c09c <utf8_append>:
    c09c:	e92d41f0 	push	{r4, r5, r6, r7, r8, lr}
    c0a0:	e24dd008 	sub	sp, sp, #8, 0
    c0a4:	e3120001 	tst	r2, #1, 0
    c0a8:	1a000004 	bne	c0c0 <utf8_append+0x24>
    c0ac:	e1a07000 	mov	r7, r0
    c0b0:	e1a06001 	mov	r6, r1
    c0b4:	e1a08002 	mov	r8, r2
    c0b8:	e3a04000 	mov	r4, #0, 0
    c0bc:	ea000015 	b	c118 <utf8_append+0x7c>
    c0c0:	e59f3094 	ldr	r3, [pc, #148]	; c15c <utf8_append+0xc0>
    c0c4:	e58d3000 	str	r3, [sp]
    c0c8:	e3a03044 	mov	r3, #68, 0	; 0x44
    c0cc:	e59f208c 	ldr	r2, [pc, #140]	; c160 <utf8_append+0xc4>
    c0d0:	e59f108c 	ldr	r1, [pc, #140]	; c164 <utf8_append+0xc8>
    c0d4:	e59f008c 	ldr	r0, [pc, #140]	; c168 <utf8_append+0xcc>
    c0d8:	eb00033d 	bl	cdd4 <printk>
    c0dc:	eb00046c 	bl	d294 <clean_reboot>
    c0e0:	e35300ff 	cmp	r3, #255, 0	; 0xff
    c0e4:	0a000018 	beq	c14c <utf8_append+0xb0>
    c0e8:	e0861001 	add	r1, r6, r1
    c0ec:	e5d10001 	ldrb	r0, [r1, #1]
    c0f0:	e1830400 	orr	r0, r3, r0, lsl #8
    c0f4:	eb000230 	bl	c9bc <to_utf8>
    c0f8:	e1a05000 	mov	r5, r0
    c0fc:	e1a01000 	mov	r1, r0
    c100:	e1a00007 	mov	r0, r7
    c104:	eb00043b 	bl	d1f8 <strcat>
    c108:	e1a00005 	mov	r0, r5
    c10c:	eb000459 	bl	d278 <strlen>
    c110:	e0877000 	add	r7, r7, r0
    c114:	e2844002 	add	r4, r4, #2, 0
    c118:	e1a01004 	mov	r1, r4
    c11c:	e1540008 	cmp	r4, r8
    c120:	2a000006 	bcs	c140 <utf8_append+0xa4>
    c124:	e0862004 	add	r2, r6, r4
    c128:	e7d63004 	ldrb	r3, [r6, r4]
    c12c:	e3530000 	cmp	r3, #0, 0
    c130:	1affffea 	bne	c0e0 <utf8_append+0x44>
    c134:	e5d20001 	ldrb	r0, [r2, #1]
    c138:	e3500000 	cmp	r0, #0, 0
    c13c:	1affffe7 	bne	c0e0 <utf8_append+0x44>
    c140:	e1a00007 	mov	r0, r7
    c144:	e28dd008 	add	sp, sp, #8, 0
    c148:	e8bd81f0 	pop	{r4, r5, r6, r7, r8, pc}
    c14c:	e5d22001 	ldrb	r2, [r2, #1]
    c150:	e35200ff 	cmp	r2, #255, 0	; 0xff
    c154:	1affffe3 	bne	c0e8 <utf8_append+0x4c>
    c158:	eafffff8 	b	c140 <utf8_append+0xa4>
    c15c:	0000f4fc 	.word	0x0000f4fc
    c160:	0000f77c 	.word	0x0000f77c
    c164:	0000f4dc 	.word	0x0000f4dc
    c168:	0000e120 	.word	0x0000e120

0000c16c <is_attr>:
    c16c:	e350000f 	cmp	r0, #15, 0
    c170:	0a000003 	beq	c184 <is_attr+0x18>
    c174:	e1d13000 	bics	r3, r1, r0
    c178:	03a00001 	moveq	r0, #1, 0
    c17c:	13a00000 	movne	r0, #0, 0
    c180:	e12fff1e 	bx	lr
    c184:	e1500001 	cmp	r0, r1
    c188:	13a00000 	movne	r0, #0, 0
    c18c:	03a00001 	moveq	r0, #1, 0
    c190:	e12fff1e 	bx	lr

0000c194 <lfn_checksum>:
    c194:	e1a03000 	mov	r3, r0
    c198:	e3a0100b 	mov	r1, #11, 0
    c19c:	e3a00000 	mov	r0, #0, 0
    c1a0:	ea000005 	b	c1bc <lfn_checksum+0x28>
    c1a4:	e1a020a0 	lsr	r2, r0, #1
    c1a8:	e0820380 	add	r0, r2, r0, lsl #7
    c1ac:	e4d32001 	ldrb	r2, [r3], #1
    c1b0:	e6e20070 	uxtab	r0, r2, r0
    c1b4:	e6ef0070 	uxtb	r0, r0
    c1b8:	e2411001 	sub	r1, r1, #1, 0
    c1bc:	e3510000 	cmp	r1, #0, 0
    c1c0:	1afffff7 	bne	c1a4 <lfn_checksum+0x10>
    c1c4:	e12fff1e 	bx	lr

0000c1c8 <lfn_is_last>:
    c1c8:	e1a00320 	lsr	r0, r0, #6
    c1cc:	e2000001 	and	r0, r0, #1, 0
    c1d0:	e12fff1e 	bx	lr

0000c1d4 <lfn_is_first>:
    c1d4:	e20000bf 	and	r0, r0, #191, 0	; 0xbf
    c1d8:	e3500001 	cmp	r0, #1, 0
    c1dc:	13a00000 	movne	r0, #0, 0
    c1e0:	03a00001 	moveq	r0, #1, 0
    c1e4:	e12fff1e 	bx	lr

0000c1e8 <lfn_is_deleted>:
    c1e8:	e20000e5 	and	r0, r0, #229, 0	; 0xe5
    c1ec:	e35000e5 	cmp	r0, #229, 0	; 0xe5
    c1f0:	13a00000 	movne	r0, #0, 0
    c1f4:	03a00001 	moveq	r0, #1, 0
    c1f8:	e12fff1e 	bx	lr

0000c1fc <fat32_dirent_is_deleted_lfn>:
    c1fc:	e52de004 	push	{lr}		; (str lr, [sp, #-4]!)
    c200:	e24dd00c 	sub	sp, sp, #12, 0
    c204:	e5d0300b 	ldrb	r3, [r0, #11]
    c208:	e353000f 	cmp	r3, #15, 0
    c20c:	1a000003 	bne	c220 <fat32_dirent_is_deleted_lfn+0x24>
    c210:	e5d00000 	ldrb	r0, [r0]
    c214:	ebfffff3 	bl	c1e8 <lfn_is_deleted>
    c218:	e28dd00c 	add	sp, sp, #12, 0
    c21c:	e49df004 	pop	{pc}		; (ldr pc, [sp], #4)
    c220:	e59f3018 	ldr	r3, [pc, #24]	; c240 <fat32_dirent_is_deleted_lfn+0x44>
    c224:	e58d3000 	str	r3, [sp]
    c228:	e3a03021 	mov	r3, #33, 0	; 0x21
    c22c:	e59f2010 	ldr	r2, [pc, #16]	; c244 <fat32_dirent_is_deleted_lfn+0x48>
    c230:	e59f1010 	ldr	r1, [pc, #16]	; c248 <fat32_dirent_is_deleted_lfn+0x4c>
    c234:	e59f0010 	ldr	r0, [pc, #16]	; c24c <fat32_dirent_is_deleted_lfn+0x50>
    c238:	eb0002e5 	bl	cdd4 <printk>
    c23c:	eb000414 	bl	d294 <clean_reboot>
    c240:	0000f50c 	.word	0x0000f50c
    c244:	0000f788 	.word	0x0000f788
    c248:	0000f4dc 	.word	0x0000f4dc
    c24c:	0000e120 	.word	0x0000e120

0000c250 <lfn_print_ent>:
    c250:	e92d43f0 	push	{r4, r5, r6, r7, r8, r9, lr}
    c254:	e24dd02c 	sub	sp, sp, #44, 0	; 0x2c
    c258:	e1a05000 	mov	r5, r0
    c25c:	e1a06001 	mov	r6, r1
    c260:	e1a07000 	mov	r7, r0
    c264:	e4d74001 	ldrb	r4, [r7], #1
    c268:	e1a00004 	mov	r0, r4
    c26c:	ebffffd8 	bl	c1d4 <lfn_is_first>
    c270:	e1a08000 	mov	r8, r0
    c274:	e1a00004 	mov	r0, r4
    c278:	ebffffd2 	bl	c1c8 <lfn_is_last>
    c27c:	e1a09000 	mov	r9, r0
    c280:	e1a00004 	mov	r0, r4
    c284:	ebffffd7 	bl	c1e8 <lfn_is_deleted>
    c288:	e58d0000 	str	r0, [sp]
    c28c:	e1a03009 	mov	r3, r9
    c290:	e1a02008 	mov	r2, r8
    c294:	e1a01004 	mov	r1, r4
    c298:	e59f009c 	ldr	r0, [pc, #156]	; c33c <lfn_print_ent+0xec>
    c29c:	eb0002cc 	bl	cdd4 <printk>
    c2a0:	e3a0200a 	mov	r2, #10, 0
    c2a4:	e1a01007 	mov	r1, r7
    c2a8:	e28d000c 	add	r0, sp, #12, 0
    c2ac:	eb000269 	bl	cc58 <memcpy>
    c2b0:	e3a0200c 	mov	r2, #12, 0
    c2b4:	e285100e 	add	r1, r5, #14, 0
    c2b8:	e28d0016 	add	r0, sp, #22, 0
    c2bc:	eb000265 	bl	cc58 <memcpy>
    c2c0:	e3a02004 	mov	r2, #4, 0
    c2c4:	e285101c 	add	r1, r5, #28, 0
    c2c8:	e28d0022 	add	r0, sp, #34, 0	; 0x22
    c2cc:	eb000261 	bl	cc58 <memcpy>
    c2d0:	e3a04000 	mov	r4, #0, 0
    c2d4:	e5cd4026 	strb	r4, [sp, #38]	; 0x26
    c2d8:	ea000004 	b	c2f0 <lfn_print_ent+0xa0>
    c2dc:	e1a03002 	mov	r3, r2
    c2e0:	e1a01004 	mov	r1, r4
    c2e4:	e59f0054 	ldr	r0, [pc, #84]	; c340 <lfn_print_ent+0xf0>
    c2e8:	eb0002b9 	bl	cdd4 <printk>
    c2ec:	e2844002 	add	r4, r4, #2, 0
    c2f0:	e3540019 	cmp	r4, #25, 0
    c2f4:	ca00000a 	bgt	c324 <lfn_print_ent+0xd4>
    c2f8:	e28d3028 	add	r3, sp, #40, 0	; 0x28
    c2fc:	e0833004 	add	r3, r3, r4
    c300:	e553201c 	ldrb	r2, [r3, #-28]	; 0xffffffe4
    c304:	e3520000 	cmp	r2, #0, 0
    c308:	1afffff3 	bne	c2dc <lfn_print_ent+0x8c>
    c30c:	e2843001 	add	r3, r4, #1, 0
    c310:	e28d1028 	add	r1, sp, #40, 0	; 0x28
    c314:	e0813003 	add	r3, r1, r3
    c318:	e553301c 	ldrb	r3, [r3, #-28]	; 0xffffffe4
    c31c:	e3530000 	cmp	r3, #0, 0
    c320:	1affffed 	bne	c2dc <lfn_print_ent+0x8c>
    c324:	e1a02006 	mov	r2, r6
    c328:	e5d5100d 	ldrb	r1, [r5, #13]
    c32c:	e59f0010 	ldr	r0, [pc, #16]	; c344 <lfn_print_ent+0xf4>
    c330:	eb0002a7 	bl	cdd4 <printk>
    c334:	e28dd02c 	add	sp, sp, #44, 0	; 0x2c
    c338:	e8bd83f0 	pop	{r4, r5, r6, r7, r8, r9, pc}
    c33c:	0000f52c 	.word	0x0000f52c
    c340:	0000f558 	.word	0x0000f558
    c344:	0000f570 	.word	0x0000f570

0000c348 <lfn_get_name>:
    c348:	e92d4070 	push	{r4, r5, r6, lr}
    c34c:	e24dd008 	sub	sp, sp, #8, 0
    c350:	e1a06000 	mov	r6, r0
    c354:	e59f0080 	ldr	r0, [pc, #128]	; c3dc <lfn_get_name+0x94>
    c358:	e3a03000 	mov	r3, #0, 0
    c35c:	e5c03000 	strb	r3, [r0]
    c360:	e2415001 	sub	r5, r1, #1, 0
    c364:	e3550000 	cmp	r5, #0, 0
    c368:	ba000016 	blt	c3c8 <lfn_get_name+0x80>
    c36c:	e0864285 	add	r4, r6, r5, lsl #5
    c370:	e5d4300b 	ldrb	r3, [r4, #11]
    c374:	e353000f 	cmp	r3, #15, 0
    c378:	1a00000a 	bne	c3a8 <lfn_get_name+0x60>
    c37c:	e3a0200a 	mov	r2, #10, 0
    c380:	e2841001 	add	r1, r4, #1, 0
    c384:	ebffff44 	bl	c09c <utf8_append>
    c388:	e3a0200c 	mov	r2, #12, 0
    c38c:	e284100e 	add	r1, r4, #14, 0
    c390:	ebffff41 	bl	c09c <utf8_append>
    c394:	e3a02004 	mov	r2, #4, 0
    c398:	e284101c 	add	r1, r4, #28, 0
    c39c:	ebffff3e 	bl	c09c <utf8_append>
    c3a0:	e2455001 	sub	r5, r5, #1, 0
    c3a4:	eaffffee 	b	c364 <lfn_get_name+0x1c>
    c3a8:	e59f3030 	ldr	r3, [pc, #48]	; c3e0 <lfn_get_name+0x98>
    c3ac:	e58d3000 	str	r3, [sp]
    c3b0:	e3a03055 	mov	r3, #85, 0	; 0x55
    c3b4:	e59f2028 	ldr	r2, [pc, #40]	; c3e4 <lfn_get_name+0x9c>
    c3b8:	e59f1028 	ldr	r1, [pc, #40]	; c3e8 <lfn_get_name+0xa0>
    c3bc:	e59f0028 	ldr	r0, [pc, #40]	; c3ec <lfn_get_name+0xa4>
    c3c0:	eb000283 	bl	cdd4 <printk>
    c3c4:	eb0003b2 	bl	d294 <clean_reboot>
    c3c8:	e3a03000 	mov	r3, #0, 0
    c3cc:	e5c03000 	strb	r3, [r0]
    c3d0:	e59f0004 	ldr	r0, [pc, #4]	; c3dc <lfn_get_name+0x94>
    c3d4:	e28dd008 	add	sp, sp, #8, 0
    c3d8:	e8bd8070 	pop	{r4, r5, r6, pc}
    c3dc:	000107c0 	.word	0x000107c0
    c3e0:	0000f58c 	.word	0x0000f58c
    c3e4:	0000f7a4 	.word	0x0000f7a4
    c3e8:	0000f4dc 	.word	0x0000f4dc
    c3ec:	0000e120 	.word	0x0000e120

0000c3f0 <lfn_print>:
    c3f0:	e92d43f0 	push	{r4, r5, r6, r7, r8, r9, lr}
    c3f4:	e24dd00c 	sub	sp, sp, #12, 0
    c3f8:	e2518000 	subs	r8, r1, #0, 0
    c3fc:	da000007 	ble	c420 <lfn_print+0x30>
    c400:	e1a06000 	mov	r6, r0
    c404:	e1a07002 	mov	r7, r2
    c408:	e1a09003 	mov	r9, r3
    c40c:	e2483001 	sub	r3, r8, #1, 0
    c410:	e3530001 	cmp	r3, #1, 0
    c414:	8a000009 	bhi	c440 <lfn_print+0x50>
    c418:	e3a04000 	mov	r4, #0, 0
    c41c:	ea000021 	b	c4a8 <lfn_print+0xb8>
    c420:	e59f3134 	ldr	r3, [pc, #308]	; c55c <lfn_print+0x16c>
    c424:	e58d3000 	str	r3, [sp]
    c428:	e3a0305f 	mov	r3, #95, 0	; 0x5f
    c42c:	e59f212c 	ldr	r2, [pc, #300]	; c560 <lfn_print+0x170>
    c430:	e59f112c 	ldr	r1, [pc, #300]	; c564 <lfn_print+0x174>
    c434:	e59f012c 	ldr	r0, [pc, #300]	; c568 <lfn_print+0x178>
    c438:	eb000265 	bl	cdd4 <printk>
    c43c:	eb000394 	bl	d294 <clean_reboot>
    c440:	e59f3124 	ldr	r3, [pc, #292]	; c56c <lfn_print+0x17c>
    c444:	e58d3000 	str	r3, [sp]
    c448:	e3a03062 	mov	r3, #98, 0	; 0x62
    c44c:	e59f210c 	ldr	r2, [pc, #268]	; c560 <lfn_print+0x170>
    c450:	e59f110c 	ldr	r1, [pc, #268]	; c564 <lfn_print+0x174>
    c454:	e59f0114 	ldr	r0, [pc, #276]	; c570 <lfn_print+0x180>
    c458:	eb00025d 	bl	cdd4 <printk>
    c45c:	eb00038c 	bl	d294 <clean_reboot>
    c460:	e59f310c 	ldr	r3, [pc, #268]	; c574 <lfn_print+0x184>
    c464:	e58d3000 	str	r3, [sp]
    c468:	e3a03064 	mov	r3, #100, 0	; 0x64
    c46c:	e59f20ec 	ldr	r2, [pc, #236]	; c560 <lfn_print+0x170>
    c470:	e59f10ec 	ldr	r1, [pc, #236]	; c564 <lfn_print+0x174>
    c474:	e59f00ec 	ldr	r0, [pc, #236]	; c568 <lfn_print+0x178>
    c478:	eb000255 	bl	cdd4 <printk>
    c47c:	eb000384 	bl	d294 <clean_reboot>
    c480:	e1a01004 	mov	r1, r4
    c484:	e59f00ec 	ldr	r0, [pc, #236]	; c578 <lfn_print+0x188>
    c488:	eb000251 	bl	cdd4 <printk>
    c48c:	e1a01007 	mov	r1, r7
    c490:	e1a00005 	mov	r0, r5
    c494:	ebffff6d 	bl	c250 <lfn_print_ent>
    c498:	e5d5000d 	ldrb	r0, [r5, #13]
    c49c:	e1500007 	cmp	r0, r7
    c4a0:	1a00000a 	bne	c4d0 <lfn_print+0xe0>
    c4a4:	e2844001 	add	r4, r4, #1, 0
    c4a8:	e1540008 	cmp	r4, r8
    c4ac:	aa00000f 	bge	c4f0 <lfn_print+0x100>
    c4b0:	e0865284 	add	r5, r6, r4, lsl #5
    c4b4:	e7d60284 	ldrb	r0, [r6, r4, lsl #5]
    c4b8:	ebffff4a 	bl	c1e8 <lfn_is_deleted>
    c4bc:	e3500000 	cmp	r0, #0, 0
    c4c0:	1affffe6 	bne	c460 <lfn_print+0x70>
    c4c4:	e3590000 	cmp	r9, #0, 0
    c4c8:	0afffff2 	beq	c498 <lfn_print+0xa8>
    c4cc:	eaffffeb 	b	c480 <lfn_print+0x90>
    c4d0:	e59f30a4 	ldr	r3, [pc, #164]	; c57c <lfn_print+0x18c>
    c4d4:	e58d3000 	str	r3, [sp]
    c4d8:	e3a03069 	mov	r3, #105, 0	; 0x69
    c4dc:	e59f207c 	ldr	r2, [pc, #124]	; c560 <lfn_print+0x170>
    c4e0:	e59f107c 	ldr	r1, [pc, #124]	; c564 <lfn_print+0x174>
    c4e4:	e59f007c 	ldr	r0, [pc, #124]	; c568 <lfn_print+0x178>
    c4e8:	eb000239 	bl	cdd4 <printk>
    c4ec:	eb000368 	bl	d294 <clean_reboot>
    c4f0:	e5d60000 	ldrb	r0, [r6]
    c4f4:	ebffff33 	bl	c1c8 <lfn_is_last>
    c4f8:	e3500000 	cmp	r0, #0, 0
    c4fc:	0a000006 	beq	c51c <lfn_print+0x12c>
    c500:	e248837e 	sub	r8, r8, #-134217727	; 0xf8000001
    c504:	e7d60288 	ldrb	r0, [r6, r8, lsl #5]
    c508:	ebffff31 	bl	c1d4 <lfn_is_first>
    c50c:	e3500000 	cmp	r0, #0, 0
    c510:	0a000009 	beq	c53c <lfn_print+0x14c>
    c514:	e28dd00c 	add	sp, sp, #12, 0
    c518:	e8bd83f0 	pop	{r4, r5, r6, r7, r8, r9, pc}
    c51c:	e59f305c 	ldr	r3, [pc, #92]	; c580 <lfn_print+0x190>
    c520:	e58d3000 	str	r3, [sp]
    c524:	e3a0306b 	mov	r3, #107, 0	; 0x6b
    c528:	e59f2030 	ldr	r2, [pc, #48]	; c560 <lfn_print+0x170>
    c52c:	e59f1030 	ldr	r1, [pc, #48]	; c564 <lfn_print+0x174>
    c530:	e59f0030 	ldr	r0, [pc, #48]	; c568 <lfn_print+0x178>
    c534:	eb000226 	bl	cdd4 <printk>
    c538:	eb000355 	bl	d294 <clean_reboot>
    c53c:	e59f3040 	ldr	r3, [pc, #64]	; c584 <lfn_print+0x194>
    c540:	e58d3000 	str	r3, [sp]
    c544:	e3a0306c 	mov	r3, #108, 0	; 0x6c
    c548:	e59f2010 	ldr	r2, [pc, #16]	; c560 <lfn_print+0x170>
    c54c:	e59f1010 	ldr	r1, [pc, #16]	; c564 <lfn_print+0x174>
    c550:	e59f0010 	ldr	r0, [pc, #16]	; c568 <lfn_print+0x178>
    c554:	eb00021e 	bl	cdd4 <printk>
    c558:	eb00034d 	bl	d294 <clean_reboot>
    c55c:	0000f5ac 	.word	0x0000f5ac
    c560:	0000f7b4 	.word	0x0000f7b4
    c564:	0000f4dc 	.word	0x0000f4dc
    c568:	0000e120 	.word	0x0000e120
    c56c:	0000f600 	.word	0x0000f600
    c570:	0000f5b8 	.word	0x0000f5b8
    c574:	0000f614 	.word	0x0000f614
    c578:	0000f634 	.word	0x0000f634
    c57c:	0000f640 	.word	0x0000f640
    c580:	0000f654 	.word	0x0000f654
    c584:	0000f66c 	.word	0x0000f66c

0000c588 <fat32_dir_filename>:
    c588:	e92d41f0 	push	{r4, r5, r6, r7, r8, lr}
    c58c:	e24dd008 	sub	sp, sp, #8, 0
    c590:	e1a06000 	mov	r6, r0
    c594:	e1a05001 	mov	r5, r1
    c598:	e1a07002 	mov	r7, r2
    c59c:	e1a00001 	mov	r0, r1
    c5a0:	ebfffcb9 	bl	b88c <fat32_dirent_free>
    c5a4:	e2504000 	subs	r4, r0, #0, 0
    c5a8:	1a000017 	bne	c60c <fat32_dir_filename+0x84>
    c5ac:	e5d5800b 	ldrb	r8, [r5, #11]
    c5b0:	e358000f 	cmp	r8, #15, 0
    c5b4:	0a00001c 	beq	c62c <fat32_dir_filename+0xa4>
    c5b8:	e3a01010 	mov	r1, #16, 0
    c5bc:	e1a00008 	mov	r0, r8
    c5c0:	ebfffee9 	bl	c16c <is_attr>
    c5c4:	e3500000 	cmp	r0, #0, 0
    c5c8:	1a000009 	bne	c5f4 <fat32_dir_filename+0x6c>
    c5cc:	e3a01020 	mov	r1, #32, 0
    c5d0:	e1a00008 	mov	r0, r8
    c5d4:	ebfffee4 	bl	c16c <is_attr>
    c5d8:	e3500000 	cmp	r0, #0, 0
    c5dc:	1a000004 	bne	c5f4 <fat32_dir_filename+0x6c>
    c5e0:	e3a01008 	mov	r1, #8, 0
    c5e4:	e1a00008 	mov	r0, r8
    c5e8:	ebfffedf 	bl	c16c <is_attr>
    c5ec:	e3500000 	cmp	r0, #0, 0
    c5f0:	0a00003c 	beq	c6e8 <fat32_dir_filename+0x160>
    c5f4:	e5d5300c 	ldrb	r3, [r5, #12]
    c5f8:	e3530018 	cmp	r3, #24, 0
    c5fc:	0a000054 	beq	c754 <fat32_dir_filename+0x1cc>
    c600:	e1a0c004 	mov	ip, r4
    c604:	e1a01004 	mov	r1, r4
    c608:	ea000041 	b	c714 <fat32_dir_filename+0x18c>
    c60c:	e59f31b4 	ldr	r3, [pc, #436]	; c7c8 <fat32_dir_filename+0x240>
    c610:	e58d3000 	str	r3, [sp]
    c614:	e3a03071 	mov	r3, #113, 0	; 0x71
    c618:	e59f21ac 	ldr	r2, [pc, #428]	; c7cc <fat32_dir_filename+0x244>
    c61c:	e59f11ac 	ldr	r1, [pc, #428]	; c7d0 <fat32_dir_filename+0x248>
    c620:	e59f01ac 	ldr	r0, [pc, #428]	; c7d4 <fat32_dir_filename+0x24c>
    c624:	eb0001ea 	bl	cdd4 <printk>
    c628:	eb000319 	bl	d294 <clean_reboot>
    c62c:	e0472005 	sub	r2, r7, r5
    c630:	e1a032c2 	asr	r3, r2, #5
    c634:	e3a04001 	mov	r4, #1, 0
    c638:	e1540003 	cmp	r4, r3
    c63c:	aa000004 	bge	c654 <fat32_dir_filename+0xcc>
    c640:	e0852284 	add	r2, r5, r4, lsl #5
    c644:	e5d2200b 	ldrb	r2, [r2, #11]
    c648:	e352000f 	cmp	r2, #15, 0
    c64c:	02844001 	addeq	r4, r4, #1, 0
    c650:	0afffff8 	beq	c638 <fat32_dir_filename+0xb0>
    c654:	e1540003 	cmp	r4, r3
    c658:	aa000012 	bge	c6a8 <fat32_dir_filename+0x120>
    c65c:	e0857284 	add	r7, r5, r4, lsl #5
    c660:	e5d7800b 	ldrb	r8, [r7, #11]
    c664:	e3a01010 	mov	r1, #16, 0
    c668:	e1a00008 	mov	r0, r8
    c66c:	ebfffebe 	bl	c16c <is_attr>
    c670:	e3500000 	cmp	r0, #0, 0
    c674:	1a000004 	bne	c68c <fat32_dir_filename+0x104>
    c678:	e3a01020 	mov	r1, #32, 0
    c67c:	e1a00008 	mov	r0, r8
    c680:	ebfffeb9 	bl	c16c <is_attr>
    c684:	e3500000 	cmp	r0, #0, 0
    c688:	0a00000e 	beq	c6c8 <fat32_dir_filename+0x140>
    c68c:	e1a01004 	mov	r1, r4
    c690:	e1a00005 	mov	r0, r5
    c694:	ebffff2b 	bl	c348 <lfn_get_name>
    c698:	e1a01000 	mov	r1, r0
    c69c:	e1a00006 	mov	r0, r6
    c6a0:	eb0002ec 	bl	d258 <strcpy>
    c6a4:	ea000044 	b	c7bc <fat32_dir_filename+0x234>
    c6a8:	e59f3128 	ldr	r3, [pc, #296]	; c7d8 <fat32_dir_filename+0x250>
    c6ac:	e58d3000 	str	r3, [sp]
    c6b0:	e3a0307a 	mov	r3, #122, 0	; 0x7a
    c6b4:	e59f2110 	ldr	r2, [pc, #272]	; c7cc <fat32_dir_filename+0x244>
    c6b8:	e59f1110 	ldr	r1, [pc, #272]	; c7d0 <fat32_dir_filename+0x248>
    c6bc:	e59f0110 	ldr	r0, [pc, #272]	; c7d4 <fat32_dir_filename+0x24c>
    c6c0:	eb0001c3 	bl	cdd4 <printk>
    c6c4:	eb0002f2 	bl	d294 <clean_reboot>
    c6c8:	e59f310c 	ldr	r3, [pc, #268]	; c7dc <fat32_dir_filename+0x254>
    c6cc:	e58d3000 	str	r3, [sp]
    c6d0:	e3a0307b 	mov	r3, #123, 0	; 0x7b
    c6d4:	e59f20f0 	ldr	r2, [pc, #240]	; c7cc <fat32_dir_filename+0x244>
    c6d8:	e59f10f0 	ldr	r1, [pc, #240]	; c7d0 <fat32_dir_filename+0x248>
    c6dc:	e59f00f0 	ldr	r0, [pc, #240]	; c7d4 <fat32_dir_filename+0x24c>
    c6e0:	eb0001bb 	bl	cdd4 <printk>
    c6e4:	eb0002ea 	bl	d294 <clean_reboot>
    c6e8:	e59f30f0 	ldr	r3, [pc, #240]	; c7e0 <fat32_dir_filename+0x258>
    c6ec:	e58d3000 	str	r3, [sp]
    c6f0:	e3a0307f 	mov	r3, #127, 0	; 0x7f
    c6f4:	e59f20d0 	ldr	r2, [pc, #208]	; c7cc <fat32_dir_filename+0x244>
    c6f8:	e59f10d0 	ldr	r1, [pc, #208]	; c7d0 <fat32_dir_filename+0x248>
    c6fc:	e59f00d0 	ldr	r0, [pc, #208]	; c7d4 <fat32_dir_filename+0x24c>
    c700:	eb0001b3 	bl	cdd4 <printk>
    c704:	eb0002e2 	bl	d294 <clean_reboot>
    c708:	e7c63001 	strb	r3, [r6, r1]
    c70c:	e2811001 	add	r1, r1, #1, 0
    c710:	e2844001 	add	r4, r4, #1, 0
    c714:	e3540007 	cmp	r4, #7, 0
    c718:	ca00000f 	bgt	c75c <fat32_dir_filename+0x1d4>
    c71c:	e7d53004 	ldrb	r3, [r5, r4]
    c720:	e3530020 	cmp	r3, #32, 0
    c724:	0afffff9 	beq	c710 <fat32_dir_filename+0x188>
    c728:	e3530040 	cmp	r3, #64, 0	; 0x40
    c72c:	93a02000 	movls	r2, #0, 0
    c730:	83a02001 	movhi	r2, #1, 0
    c734:	e35c0000 	cmp	ip, #0, 0
    c738:	03a02000 	moveq	r2, #0, 0
    c73c:	e3520000 	cmp	r2, #0, 0
    c740:	0afffff0 	beq	c708 <fat32_dir_filename+0x180>
    c744:	e353005a 	cmp	r3, #90, 0	; 0x5a
    c748:	92833020 	addls	r3, r3, #32, 0
    c74c:	96ef3073 	uxtbls	r3, r3
    c750:	eaffffec 	b	c708 <fat32_dir_filename+0x180>
    c754:	e3a0c001 	mov	ip, #1, 0
    c758:	eaffffa9 	b	c604 <fat32_dir_filename+0x7c>
    c75c:	e2810001 	add	r0, r1, #1, 0
    c760:	e3a0302e 	mov	r3, #46, 0	; 0x2e
    c764:	e7c63001 	strb	r3, [r6, r1]
    c768:	ea000002 	b	c778 <fat32_dir_filename+0x1f0>
    c76c:	e7c63000 	strb	r3, [r6, r0]
    c770:	e2844001 	add	r4, r4, #1, 0
    c774:	e2800001 	add	r0, r0, #1, 0
    c778:	e354000a 	cmp	r4, #10, 0
    c77c:	ca00000b 	bgt	c7b0 <fat32_dir_filename+0x228>
    c780:	e7d53004 	ldrb	r3, [r5, r4]
    c784:	e3530040 	cmp	r3, #64, 0	; 0x40
    c788:	93a02000 	movls	r2, #0, 0
    c78c:	83a02001 	movhi	r2, #1, 0
    c790:	e35c0000 	cmp	ip, #0, 0
    c794:	03a02000 	moveq	r2, #0, 0
    c798:	e3520000 	cmp	r2, #0, 0
    c79c:	0afffff2 	beq	c76c <fat32_dir_filename+0x1e4>
    c7a0:	e353005a 	cmp	r3, #90, 0	; 0x5a
    c7a4:	92833020 	addls	r3, r3, #32, 0
    c7a8:	96ef3073 	uxtbls	r3, r3
    c7ac:	eaffffee 	b	c76c <fat32_dir_filename+0x1e4>
    c7b0:	e3a03000 	mov	r3, #0, 0
    c7b4:	e7c63000 	strb	r3, [r6, r0]
    c7b8:	e1a07005 	mov	r7, r5
    c7bc:	e1a00007 	mov	r0, r7
    c7c0:	e28dd008 	add	sp, sp, #8, 0
    c7c4:	e8bd81f0 	pop	{r4, r5, r6, r7, r8, pc}
    c7c8:	0000f68c 	.word	0x0000f68c
    c7cc:	0000f7c0 	.word	0x0000f7c0
    c7d0:	0000f4dc 	.word	0x0000f4dc
    c7d4:	0000e120 	.word	0x0000e120
    c7d8:	0000f6a4 	.word	0x0000f6a4
    c7dc:	0000f6ac 	.word	0x0000f6ac
    c7e0:	0000f6f4 	.word	0x0000f6f4

0000c7e4 <fat32_lfn_print>:
    c7e4:	e92d40f0 	push	{r4, r5, r6, r7, lr}
    c7e8:	e24dd00c 	sub	sp, sp, #12, 0
    c7ec:	e1a05001 	mov	r5, r1
    c7f0:	e5d1300b 	ldrb	r3, [r1, #11]
    c7f4:	e353000f 	cmp	r3, #15, 0
    c7f8:	0a000004 	beq	c810 <fat32_lfn_print+0x2c>
    c7fc:	ebfffdb8 	bl	bee4 <fat32_dirent_print>
    c800:	e3a04001 	mov	r4, #1, 0
    c804:	e1a00004 	mov	r0, r4
    c808:	e28dd00c 	add	sp, sp, #12, 0
    c80c:	e8bd80f0 	pop	{r4, r5, r6, r7, pc}
    c810:	e1a06002 	mov	r6, r2
    c814:	e1a01000 	mov	r1, r0
    c818:	e59f00e4 	ldr	r0, [pc, #228]	; c904 <fat32_lfn_print+0x120>
    c81c:	eb00016c 	bl	cdd4 <printk>
    c820:	e3a04000 	mov	r4, #0, 0
    c824:	e1540006 	cmp	r4, r6
    c828:	aa000004 	bge	c840 <fat32_lfn_print+0x5c>
    c82c:	e0853284 	add	r3, r5, r4, lsl #5
    c830:	e5d3300b 	ldrb	r3, [r3, #11]
    c834:	e353000f 	cmp	r3, #15, 0
    c838:	02844001 	addeq	r4, r4, #1, 0
    c83c:	0afffff8 	beq	c824 <fat32_lfn_print+0x40>
    c840:	e1540006 	cmp	r4, r6
    c844:	aa00001e 	bge	c8c4 <fat32_lfn_print+0xe0>
    c848:	e0856284 	add	r6, r5, r4, lsl #5
    c84c:	e5d6700b 	ldrb	r7, [r6, #11]
    c850:	e3a01010 	mov	r1, #16, 0
    c854:	e1a00007 	mov	r0, r7
    c858:	ebfffe43 	bl	c16c <is_attr>
    c85c:	e3500000 	cmp	r0, #0, 0
    c860:	1a000004 	bne	c878 <fat32_lfn_print+0x94>
    c864:	e3a01020 	mov	r1, #32, 0
    c868:	e1a00007 	mov	r0, r7
    c86c:	ebfffe3e 	bl	c16c <is_attr>
    c870:	e3500000 	cmp	r0, #0, 0
    c874:	0a00001a 	beq	c8e4 <fat32_lfn_print+0x100>
    c878:	e59f0088 	ldr	r0, [pc, #136]	; c908 <fat32_lfn_print+0x124>
    c87c:	eb000154 	bl	cdd4 <printk>
    c880:	e1a00006 	mov	r0, r6
    c884:	ebfffe42 	bl	c194 <lfn_checksum>
    c888:	e1a02000 	mov	r2, r0
    c88c:	e3a03000 	mov	r3, #0, 0
    c890:	e1a01004 	mov	r1, r4
    c894:	e1a00005 	mov	r0, r5
    c898:	ebfffed4 	bl	c3f0 <lfn_print>
    c89c:	e1a01004 	mov	r1, r4
    c8a0:	e1a00005 	mov	r0, r5
    c8a4:	ebfffea7 	bl	c348 <lfn_get_name>
    c8a8:	e1a01000 	mov	r1, r0
    c8ac:	e59f0058 	ldr	r0, [pc, #88]	; c90c <fat32_lfn_print+0x128>
    c8b0:	eb000147 	bl	cdd4 <printk>
    c8b4:	e2844001 	add	r4, r4, #1, 0
    c8b8:	e1a00006 	mov	r0, r6
    c8bc:	ebfffcf5 	bl	bc98 <fat32_dirent_print_helper>
    c8c0:	eaffffcf 	b	c804 <fat32_lfn_print+0x20>
    c8c4:	e59f3044 	ldr	r3, [pc, #68]	; c910 <fat32_lfn_print+0x12c>
    c8c8:	e58d3000 	str	r3, [sp]
    c8cc:	e3a030ac 	mov	r3, #172, 0	; 0xac
    c8d0:	e59f203c 	ldr	r2, [pc, #60]	; c914 <fat32_lfn_print+0x130>
    c8d4:	e59f103c 	ldr	r1, [pc, #60]	; c918 <fat32_lfn_print+0x134>
    c8d8:	e59f003c 	ldr	r0, [pc, #60]	; c91c <fat32_lfn_print+0x138>
    c8dc:	eb00013c 	bl	cdd4 <printk>
    c8e0:	eb00026b 	bl	d294 <clean_reboot>
    c8e4:	e59f3034 	ldr	r3, [pc, #52]	; c920 <fat32_lfn_print+0x13c>
    c8e8:	e58d3000 	str	r3, [sp]
    c8ec:	e3a030ad 	mov	r3, #173, 0	; 0xad
    c8f0:	e59f201c 	ldr	r2, [pc, #28]	; c914 <fat32_lfn_print+0x130>
    c8f4:	e59f101c 	ldr	r1, [pc, #28]	; c918 <fat32_lfn_print+0x134>
    c8f8:	e59f001c 	ldr	r0, [pc, #28]	; c91c <fat32_lfn_print+0x138>
    c8fc:	eb000134 	bl	cdd4 <printk>
    c900:	eb000263 	bl	d294 <clean_reboot>
    c904:	0000f42c 	.word	0x0000f42c
    c908:	0000e770 	.word	0x0000e770
    c90c:	0000f758 	.word	0x0000f758
    c910:	0000f74c 	.word	0x0000f74c
    c914:	0000f7d4 	.word	0x0000f7d4
    c918:	0000f4dc 	.word	0x0000f4dc
    c91c:	0000e120 	.word	0x0000e120
    c920:	0000f6ac 	.word	0x0000f6ac

0000c924 <codepoint_len>:
    c924:	e1a0c000 	mov	ip, r0
    c928:	e59f2040 	ldr	r2, [pc, #64]	; c970 <codepoint_len+0x4c>
    c92c:	e3a00000 	mov	r0, #0, 0
    c930:	ea000001 	b	c93c <codepoint_len+0x18>
    c934:	e2800001 	add	r0, r0, #1, 0
    c938:	e2822004 	add	r2, r2, #4, 0
    c93c:	e5923000 	ldr	r3, [r2]
    c940:	e3530000 	cmp	r3, #0, 0
    c944:	0a000005 	beq	c960 <codepoint_len+0x3c>
    c948:	e5931004 	ldr	r1, [r3, #4]
    c94c:	e151000c 	cmp	r1, ip
    c950:	8afffff7 	bhi	c934 <codepoint_len+0x10>
    c954:	e5933008 	ldr	r3, [r3, #8]
    c958:	e153000c 	cmp	r3, ip
    c95c:	3afffff4 	bcc	c934 <codepoint_len+0x10>
    c960:	e3500004 	cmp	r0, #4, 0
    c964:	d12fff1e 	bxle	lr
    c968:	e3e00000 	mvn	r0, #0, 0
    c96c:	e12fff1e 	bx	lr
    c970:	00010638 	.word	0x00010638

0000c974 <utf8_len>:
    c974:	e1a0c000 	mov	ip, r0
    c978:	e59f1038 	ldr	r1, [pc, #56]	; c9b8 <utf8_len+0x44>
    c97c:	e3a00000 	mov	r0, #0, 0
    c980:	e5913000 	ldr	r3, [r1]
    c984:	e3530000 	cmp	r3, #0, 0
    c988:	0a000006 	beq	c9a8 <utf8_len+0x34>
    c98c:	e5d32000 	ldrb	r2, [r3]
    c990:	e1cc2002 	bic	r2, ip, r2
    c994:	e5d33001 	ldrb	r3, [r3, #1]
    c998:	e1520003 	cmp	r2, r3
    c99c:	12800001 	addne	r0, r0, #1, 0
    c9a0:	12811004 	addne	r1, r1, #4, 0
    c9a4:	1afffff5 	bne	c980 <utf8_len+0xc>
    c9a8:	e3500004 	cmp	r0, #4, 0
    c9ac:	d12fff1e 	bxle	lr
    c9b0:	e3e00000 	mvn	r0, #0, 0
    c9b4:	e12fff1e 	bx	lr
    c9b8:	00010638 	.word	0x00010638

0000c9bc <to_utf8>:
    c9bc:	e92d4070 	push	{r4, r5, r6, lr}
    c9c0:	e1a04000 	mov	r4, r0
    c9c4:	ebffffd6 	bl	c924 <codepoint_len>
    c9c8:	e250c000 	subs	ip, r0, #0, 0
    c9cc:	ba00001c 	blt	ca44 <to_utf8+0x88>
    c9d0:	e59f3074 	ldr	r3, [pc, #116]	; ca4c <to_utf8+0x90>
    c9d4:	e5930000 	ldr	r0, [r3]
    c9d8:	e590500c 	ldr	r5, [r0, #12]
    c9dc:	e24c1001 	sub	r1, ip, #1, 0
    c9e0:	e0010591 	mul	r1, r1, r5
    c9e4:	e793210c 	ldr	r2, [r3, ip, lsl #2]
    c9e8:	e5d23000 	ldrb	r3, [r2]
    c9ec:	e0033134 	and	r3, r3, r4, lsr r1
    c9f0:	e5d22001 	ldrb	r2, [r2, #1]
    c9f4:	e1833002 	orr	r3, r3, r2
    c9f8:	e59f2050 	ldr	r2, [pc, #80]	; ca50 <to_utf8+0x94>
    c9fc:	e5c23000 	strb	r3, [r2]
    ca00:	e0411005 	sub	r1, r1, r5
    ca04:	e3a02001 	mov	r2, #1, 0
    ca08:	ea000007 	b	ca2c <to_utf8+0x70>
    ca0c:	e5d03000 	ldrb	r3, [r0]
    ca10:	e0033134 	and	r3, r3, r4, lsr r1
    ca14:	e5d0e001 	ldrb	lr, [r0, #1]
    ca18:	e183300e 	orr	r3, r3, lr
    ca1c:	e59fe02c 	ldr	lr, [pc, #44]	; ca50 <to_utf8+0x94>
    ca20:	e7ce3002 	strb	r3, [lr, r2]
    ca24:	e0411005 	sub	r1, r1, r5
    ca28:	e2822001 	add	r2, r2, #1, 0
    ca2c:	e152000c 	cmp	r2, ip
    ca30:	bafffff5 	blt	ca0c <to_utf8+0x50>
    ca34:	e59f0014 	ldr	r0, [pc, #20]	; ca50 <to_utf8+0x94>
    ca38:	e3a03000 	mov	r3, #0, 0
    ca3c:	e7c0300c 	strb	r3, [r0, ip]
    ca40:	e8bd8070 	pop	{r4, r5, r6, pc}
    ca44:	e3a00000 	mov	r0, #0, 0
    ca48:	e8bd8070 	pop	{r4, r5, r6, pc}
    ca4c:	00010638 	.word	0x00010638
    ca50:	000109c0 	.word	0x000109c0

0000ca54 <to_cp>:
    ca54:	e92d41f0 	push	{r4, r5, r6, r7, r8, lr}
    ca58:	e1a05000 	mov	r5, r0
    ca5c:	e5d04000 	ldrb	r4, [r0]
    ca60:	e1a00004 	mov	r0, r4
    ca64:	ebffffc2 	bl	c974 <utf8_len>
    ca68:	e2506000 	subs	r6, r0, #0, 0
    ca6c:	ba000013 	blt	cac0 <to_cp+0x6c>
    ca70:	e59f3050 	ldr	r3, [pc, #80]	; cac8 <to_cp+0x74>
    ca74:	e5938000 	ldr	r8, [r3]
    ca78:	e598700c 	ldr	r7, [r8, #12]
    ca7c:	e2462001 	sub	r2, r6, #1, 0
    ca80:	e0020792 	mul	r2, r2, r7
    ca84:	e285c001 	add	ip, r5, #1, 0
    ca88:	e7933106 	ldr	r3, [r3, r6, lsl #2]
    ca8c:	e5d30000 	ldrb	r0, [r3]
    ca90:	e0000004 	and	r0, r0, r4
    ca94:	e1a00210 	lsl	r0, r0, r2
    ca98:	e3a01001 	mov	r1, #1, 0
    ca9c:	e1510006 	cmp	r1, r6
    caa0:	a8bd81f0 	popge	{r4, r5, r6, r7, r8, pc}
    caa4:	e0422007 	sub	r2, r2, r7
    caa8:	e4dc3001 	ldrb	r3, [ip], #1
    caac:	e5d8e000 	ldrb	lr, [r8]
    cab0:	e003300e 	and	r3, r3, lr
    cab4:	e1800213 	orr	r0, r0, r3, lsl r2
    cab8:	e2811001 	add	r1, r1, #1, 0
    cabc:	eafffff6 	b	ca9c <to_cp+0x48>
    cac0:	e3a00000 	mov	r0, #0, 0
    cac4:	e8bd81f0 	pop	{r4, r5, r6, r7, r8, pc}
    cac8:	00010638 	.word	0x00010638

0000cacc <test_main>:
    cacc:	e92d4070 	push	{r4, r5, r6, lr}
    cad0:	e24dd028 	sub	sp, sp, #40, 0	; 0x28
    cad4:	e28dc008 	add	ip, sp, #8, 0
    cad8:	e59fe0b0 	ldr	lr, [pc, #176]	; cb90 <test_main+0xc4>
    cadc:	e8be000f 	ldm	lr!, {r0, r1, r2, r3}
    cae0:	e8ac000f 	stmia	ip!, {r0, r1, r2, r3}
    cae4:	e89e000f 	ldm	lr, {r0, r1, r2, r3}
    cae8:	e88c000f 	stm	ip, {r0, r1, r2, r3}
    caec:	e59f00a0 	ldr	r0, [pc, #160]	; cb94 <test_main+0xc8>
    caf0:	eb0000b7 	bl	cdd4 <printk>
    caf4:	e59f009c 	ldr	r0, [pc, #156]	; cb98 <test_main+0xcc>
    caf8:	eb0000b5 	bl	cdd4 <printk>
    cafc:	e28d6008 	add	r6, sp, #8, 0
    cb00:	ea000012 	b	cb50 <test_main+0x84>
    cb04:	e59f3090 	ldr	r3, [pc, #144]	; cb9c <test_main+0xd0>
    cb08:	e58d3000 	str	r3, [sp]
    cb0c:	e3a0306c 	mov	r3, #108, 0	; 0x6c
    cb10:	e59f2088 	ldr	r2, [pc, #136]	; cba0 <test_main+0xd4>
    cb14:	e59f1088 	ldr	r1, [pc, #136]	; cba4 <test_main+0xd8>
    cb18:	e59f0088 	ldr	r0, [pc, #136]	; cba8 <test_main+0xdc>
    cb1c:	eb0000ac 	bl	cdd4 <printk>
    cb20:	eb0001db 	bl	d294 <clean_reboot>
    cb24:	e59f0080 	ldr	r0, [pc, #128]	; cbac <test_main+0xe0>
    cb28:	eb0000a9 	bl	cdd4 <printk>
    cb2c:	e2844001 	add	r4, r4, #1, 0
    cb30:	e7d51004 	ldrb	r1, [r5, r4]
    cb34:	e3510000 	cmp	r1, #0, 0
    cb38:	0a000001 	beq	cb44 <test_main+0x78>
    cb3c:	e3540003 	cmp	r4, #3, 0
    cb40:	dafffff7 	ble	cb24 <test_main+0x58>
    cb44:	e59f0064 	ldr	r0, [pc, #100]	; cbb0 <test_main+0xe4>
    cb48:	eb0000a1 	bl	cdd4 <printk>
    cb4c:	e2866004 	add	r6, r6, #4, 0
    cb50:	e5960000 	ldr	r0, [r6]
    cb54:	e3500000 	cmp	r0, #0, 0
    cb58:	0a00000a 	beq	cb88 <test_main+0xbc>
    cb5c:	ebffff96 	bl	c9bc <to_utf8>
    cb60:	e2505000 	subs	r5, r0, #0, 0
    cb64:	0affffe6 	beq	cb04 <test_main+0x38>
    cb68:	e1a00005 	mov	r0, r5
    cb6c:	ebffffb8 	bl	ca54 <to_cp>
    cb70:	e1a02000 	mov	r2, r0
    cb74:	e1a01005 	mov	r1, r5
    cb78:	e59f0034 	ldr	r0, [pc, #52]	; cbb4 <test_main+0xe8>
    cb7c:	eb000094 	bl	cdd4 <printk>
    cb80:	e3a04000 	mov	r4, #0, 0
    cb84:	eaffffe9 	b	cb30 <test_main+0x64>
    cb88:	e28dd028 	add	sp, sp, #40, 0	; 0x28
    cb8c:	e8bd8070 	pop	{r4, r5, r6, pc}
    cb90:	0000f870 	.word	0x0000f870
    cb94:	0000f7e4 	.word	0x0000f7e4
    cb98:	0000f810 	.word	0x0000f810
    cb9c:	0000f854 	.word	0x0000f854
    cba0:	0000f890 	.word	0x0000f890
    cba4:	0000f83c 	.word	0x0000f83c
    cba8:	0000e120 	.word	0x0000e120
    cbac:	0000f3a8 	.word	0x0000f3a8
    cbb0:	0000e770 	.word	0x0000e770
    cbb4:	0000f85c 	.word	0x0000f85c

0000cbb8 <mbr_read>:
    cbb8:	e92d4010 	push	{r4, lr}
    cbbc:	e3a01001 	mov	r1, #1, 0
    cbc0:	e3a00000 	mov	r0, #0, 0
    cbc4:	ebffeef3 	bl	8798 <pi_sec_read>
    cbc8:	e1a04000 	mov	r4, r0
    cbcc:	ebfff854 	bl	ad24 <mbr_check>
    cbd0:	e1a00004 	mov	r0, r4
    cbd4:	e8bd8010 	pop	{r4, pc}

0000cbd8 <our_crc32_inc>:
    cbd8:	e1e02002 	mvn	r2, r2
    cbdc:	e241c001 	sub	ip, r1, #1, 0
    cbe0:	e3510000 	cmp	r1, #0, 0
    cbe4:	0a000007 	beq	cc08 <our_crc32_inc+0x30>
    cbe8:	e4d03001 	ldrb	r3, [r0], #1
    cbec:	e0233002 	eor	r3, r3, r2
    cbf0:	e6ef3073 	uxtb	r3, r3
    cbf4:	e59f1014 	ldr	r1, [pc, #20]	; cc10 <our_crc32_inc+0x38>
    cbf8:	e7913103 	ldr	r3, [r1, r3, lsl #2]
    cbfc:	e0232422 	eor	r2, r3, r2, lsr #8
    cc00:	e1a0100c 	mov	r1, ip
    cc04:	eafffff4 	b	cbdc <our_crc32_inc+0x4>
    cc08:	e1e00002 	mvn	r0, r2
    cc0c:	e12fff1e 	bx	lr
    cc10:	0000f89c 	.word	0x0000f89c

0000cc14 <our_crc32>:
    cc14:	e92d4010 	push	{r4, lr}
    cc18:	e3a02000 	mov	r2, #0, 0
    cc1c:	ebffffed 	bl	cbd8 <our_crc32_inc>
    cc20:	e8bd8010 	pop	{r4, pc}

0000cc24 <memcmp>:
    cc24:	e52de004 	push	{lr}		; (str lr, [sp, #-4]!)
    cc28:	e1a0e000 	mov	lr, r0
    cc2c:	e3a03000 	mov	r3, #0, 0
    cc30:	e1530002 	cmp	r3, r2
    cc34:	2a000005 	bcs	cc50 <memcmp+0x2c>
    cc38:	e7dec003 	ldrb	ip, [lr, r3]
    cc3c:	e7d10003 	ldrb	r0, [r1, r3]
    cc40:	e05c0000 	subs	r0, ip, r0
    cc44:	149df004 	popne	{pc}		; (ldrne pc, [sp], #4)
    cc48:	e2833001 	add	r3, r3, #1, 0
    cc4c:	eafffff7 	b	cc30 <memcmp+0xc>
    cc50:	e3a00000 	mov	r0, #0, 0
    cc54:	e49df004 	pop	{pc}		; (ldr pc, [sp], #4)

0000cc58 <memcpy>:
    cc58:	e3100007 	tst	r0, #7, 0
    cc5c:	1a00000f 	bne	cca0 <memcpy+0x48>
    cc60:	e3110007 	tst	r1, #7, 0
    cc64:	1a00000d 	bne	cca0 <memcpy+0x48>
    cc68:	e2123007 	ands	r3, r2, #7, 0
    cc6c:	1a00000b 	bne	cca0 <memcpy+0x48>
    cc70:	e1a021a2 	lsr	r2, r2, #3
    cc74:	e1530002 	cmp	r3, r2
    cc78:	212fff1e 	bxcs	lr
    cc7c:	e92d0030 	push	{r4, r5}
    cc80:	e1a0c183 	lsl	ip, r3, #3
    cc84:	e18140dc 	ldrd	r4, [r1, ip]
    cc88:	e18040fc 	strd	r4, [r0, ip]
    cc8c:	e2833001 	add	r3, r3, #1, 0
    cc90:	e1530002 	cmp	r3, r2
    cc94:	3afffff9 	bcc	cc80 <memcpy+0x28>
    cc98:	e8bd0030 	pop	{r4, r5}
    cc9c:	e12fff1e 	bx	lr
    cca0:	e2103003 	ands	r3, r0, #3, 0
    cca4:	1a000011 	bne	ccf0 <memcpy+0x98>
    cca8:	e211c003 	ands	ip, r1, #3, 0
    ccac:	1a00000c 	bne	cce4 <memcpy+0x8c>
    ccb0:	e2123003 	ands	r3, r2, #3, 0
    ccb4:	1a00000f 	bne	ccf8 <memcpy+0xa0>
    ccb8:	e1a02122 	lsr	r2, r2, #2
    ccbc:	ea000002 	b	cccc <memcpy+0x74>
    ccc0:	e791c103 	ldr	ip, [r1, r3, lsl #2]
    ccc4:	e780c103 	str	ip, [r0, r3, lsl #2]
    ccc8:	e2833001 	add	r3, r3, #1, 0
    cccc:	e1530002 	cmp	r3, r2
    ccd0:	3afffffa 	bcc	ccc0 <memcpy+0x68>
    ccd4:	e12fff1e 	bx	lr
    ccd8:	e7d1c003 	ldrb	ip, [r1, r3]
    ccdc:	e7c0c003 	strb	ip, [r0, r3]
    cce0:	e2833001 	add	r3, r3, #1, 0
    cce4:	e1530002 	cmp	r3, r2
    cce8:	3afffffa 	bcc	ccd8 <memcpy+0x80>
    ccec:	e12fff1e 	bx	lr
    ccf0:	e3a03000 	mov	r3, #0, 0
    ccf4:	eafffffa 	b	cce4 <memcpy+0x8c>
    ccf8:	e1a0300c 	mov	r3, ip
    ccfc:	eafffff8 	b	cce4 <memcpy+0x8c>

0000cd00 <memcpy_end>:
    cd00:	e12fff1e 	bx	lr

0000cd04 <memiszero>:
    cd04:	e3a03000 	mov	r3, #0, 0
    cd08:	e1530001 	cmp	r3, r1
    cd0c:	2a000004 	bcs	cd24 <memiszero+0x20>
    cd10:	e7d02003 	ldrb	r2, [r0, r3]
    cd14:	e3520000 	cmp	r2, #0, 0
    cd18:	1a000003 	bne	cd2c <memiszero+0x28>
    cd1c:	e2833001 	add	r3, r3, #1, 0
    cd20:	eafffff8 	b	cd08 <memiszero+0x4>
    cd24:	e3a00001 	mov	r0, #1, 0
    cd28:	e12fff1e 	bx	lr
    cd2c:	e3a00000 	mov	r0, #0, 0
    cd30:	e12fff1e 	bx	lr

0000cd34 <memset>:
    cd34:	e3520000 	cmp	r2, #0, 0
    cd38:	012fff1e 	bxeq	lr
    cd3c:	e3510000 	cmp	r1, #0, 0
    cd40:	1a000007 	bne	cd64 <memset+0x30>
    cd44:	e3100007 	tst	r0, #7, 0
    cd48:	1a000001 	bne	cd54 <memset+0x20>
    cd4c:	e3120007 	tst	r2, #7, 0
    cd50:	0a000011 	beq	cd9c <memset+0x68>
    cd54:	e3100003 	tst	r0, #3, 0
    cd58:	1a000001 	bne	cd64 <memset+0x30>
    cd5c:	e3120003 	tst	r2, #3, 0
    cd60:	0a000001 	beq	cd6c <memset+0x38>
    cd64:	e0802002 	add	r2, r0, r2
    cd68:	ea000008 	b	cd90 <memset+0x5c>
    cd6c:	e1a02122 	lsr	r2, r2, #2
    cd70:	ea000001 	b	cd7c <memset+0x48>
    cd74:	e4801004 	str	r1, [r0], #4
    cd78:	e1a02003 	mov	r2, r3
    cd7c:	e2423001 	sub	r3, r2, #1, 0
    cd80:	e3520000 	cmp	r2, #0, 0
    cd84:	1afffffa 	bne	cd74 <memset+0x40>
    cd88:	e12fff1e 	bx	lr
    cd8c:	e4c01001 	strb	r1, [r0], #1
    cd90:	e1500002 	cmp	r0, r2
    cd94:	3afffffc 	bcc	cd8c <memset+0x58>
    cd98:	e12fff1e 	bx	lr
    cd9c:	e1a021a2 	lsr	r2, r2, #3
    cda0:	e2423001 	sub	r3, r2, #1, 0
    cda4:	e3520000 	cmp	r2, #0, 0
    cda8:	012fff1e 	bxeq	lr
    cdac:	e92d0030 	push	{r4, r5}
    cdb0:	e1a04001 	mov	r4, r1
    cdb4:	e1a05fc1 	asr	r5, r1, #31
    cdb8:	e0c040f8 	strd	r4, [r0], #8
    cdbc:	e1a02003 	mov	r2, r3
    cdc0:	e2433001 	sub	r3, r3, #1, 0
    cdc4:	e3520000 	cmp	r2, #0, 0
    cdc8:	1afffff8 	bne	cdb0 <memset+0x7c>
    cdcc:	e8bd0030 	pop	{r4, r5}
    cdd0:	e12fff1e 	bx	lr

0000cdd4 <printk>:
    cdd4:	e92d000f 	push	{r0, r1, r2, r3}
    cdd8:	e52de004 	push	{lr}		; (str lr, [sp, #-4]!)
    cddc:	e24dd00c 	sub	sp, sp, #12, 0
    cde0:	e28d1014 	add	r1, sp, #20, 0
    cde4:	e58d1004 	str	r1, [sp, #4]
    cde8:	e59d0010 	ldr	r0, [sp, #16]
    cdec:	eb000047 	bl	cf10 <vprintk>
    cdf0:	e28dd00c 	add	sp, sp, #12, 0
    cdf4:	e49de004 	pop	{lr}		; (ldr lr, [sp], #4)
    cdf8:	e28dd010 	add	sp, sp, #16, 0
    cdfc:	e12fff1e 	bx	lr

0000ce00 <emit_val>:
    ce00:	e92d4010 	push	{r4, lr}
    ce04:	e24dd030 	sub	sp, sp, #48, 0	; 0x30
    ce08:	e350000a 	cmp	r0, #10, 0
    ce0c:	0a000014 	beq	ce64 <emit_val+0x64>
    ce10:	e3500010 	cmp	r0, #16, 0
    ce14:	0a000022 	beq	cea4 <emit_val+0xa4>
    ce18:	e3500002 	cmp	r0, #2, 0
    ce1c:	0a000006 	beq	ce3c <emit_val+0x3c>
    ce20:	e58d0000 	str	r0, [sp]
    ce24:	e3a0301b 	mov	r3, #27, 0
    ce28:	e59f20c0 	ldr	r2, [pc, #192]	; cef0 <emit_val+0xf0>
    ce2c:	e59f10c0 	ldr	r1, [pc, #192]	; cef4 <emit_val+0xf4>
    ce30:	e59f00c0 	ldr	r0, [pc, #192]	; cef8 <emit_val+0xf8>
    ce34:	ebffffe6 	bl	cdd4 <printk>
    ce38:	eb000115 	bl	d294 <clean_reboot>
    ce3c:	e28d400c 	add	r4, sp, #12, 0
    ce40:	e2012001 	and	r2, r1, #1, 0
    ce44:	e59f00b0 	ldr	r0, [pc, #176]	; cefc <emit_val+0xfc>
    ce48:	e7d02002 	ldrb	r2, [r0, r2]
    ce4c:	e5c42000 	strb	r2, [r4]
    ce50:	e2844001 	add	r4, r4, #1, 0
    ce54:	e3510001 	cmp	r1, #1, 0
    ce58:	e1a010a1 	lsr	r1, r1, #1
    ce5c:	8afffff7 	bhi	ce40 <emit_val+0x40>
    ce60:	ea00001d 	b	cedc <emit_val+0xdc>
    ce64:	e28d400c 	add	r4, sp, #12, 0
    ce68:	e59f3090 	ldr	r3, [pc, #144]	; cf00 <emit_val+0x100>
    ce6c:	e0832193 	umull	r2, r3, r3, r1
    ce70:	e1a031a3 	lsr	r3, r3, #3
    ce74:	e1a00003 	mov	r0, r3
    ce78:	e0833103 	add	r3, r3, r3, lsl #2
    ce7c:	e0413083 	sub	r3, r1, r3, lsl #1
    ce80:	e59fc07c 	ldr	ip, [pc, #124]	; cf04 <emit_val+0x104>
    ce84:	e7dcc003 	ldrb	ip, [ip, r3]
    ce88:	e5c4c000 	strb	ip, [r4]
    ce8c:	e2844001 	add	r4, r4, #1, 0
    ce90:	e1a03001 	mov	r3, r1
    ce94:	e1a01000 	mov	r1, r0
    ce98:	e3530009 	cmp	r3, #9, 0
    ce9c:	8afffff1 	bhi	ce68 <emit_val+0x68>
    cea0:	ea00000d 	b	cedc <emit_val+0xdc>
    cea4:	e28d400c 	add	r4, sp, #12, 0
    cea8:	e201200f 	and	r2, r1, #15, 0
    ceac:	e59f0054 	ldr	r0, [pc, #84]	; cf08 <emit_val+0x108>
    ceb0:	e7d02002 	ldrb	r2, [r0, r2]
    ceb4:	e5c42000 	strb	r2, [r4]
    ceb8:	e2844001 	add	r4, r4, #1, 0
    cebc:	e351000f 	cmp	r1, #15, 0
    cec0:	e1a01221 	lsr	r1, r1, #4
    cec4:	8afffff7 	bhi	cea8 <emit_val+0xa8>
    cec8:	ea000003 	b	cedc <emit_val+0xdc>
    cecc:	e59f3038 	ldr	r3, [pc, #56]	; cf0c <emit_val+0x10c>
    ced0:	e5933000 	ldr	r3, [r3]
    ced4:	e5740001 	ldrb	r0, [r4, #-1]!
    ced8:	e12fff33 	blx	r3
    cedc:	e28d300c 	add	r3, sp, #12, 0
    cee0:	e1540003 	cmp	r4, r3
    cee4:	8afffff8 	bhi	cecc <emit_val+0xcc>
    cee8:	e28dd030 	add	sp, sp, #48, 0	; 0x30
    ceec:	e8bd8010 	pop	{r4, pc}
    cef0:	0000fd54 	.word	0x0000fd54
    cef4:	0000fc9c 	.word	0x0000fc9c
    cef8:	0000fcac 	.word	0x0000fcac
    cefc:	0000fcd0 	.word	0x0000fcd0
    cf00:	cccccccd 	.word	0xcccccccd
    cf04:	0000fcd4 	.word	0x0000fcd4
    cf08:	0000fce0 	.word	0x0000fce0
    cf0c:	000106a0 	.word	0x000106a0

0000cf10 <vprintk>:
    cf10:	e92d4030 	push	{r4, r5, lr}
    cf14:	e24dd014 	sub	sp, sp, #20, 0
    cf18:	e1a04000 	mov	r4, r0
    cf1c:	e58d100c 	str	r1, [sp, #12]
    cf20:	ea000003 	b	cf34 <vprintk+0x24>
    cf24:	e59f3288 	ldr	r3, [pc, #648]	; d1b4 <vprintk+0x2a4>
    cf28:	e5933000 	ldr	r3, [r3]
    cf2c:	e12fff33 	blx	r3
    cf30:	e2844001 	add	r4, r4, #1, 0
    cf34:	e5d40000 	ldrb	r0, [r4]
    cf38:	e3500000 	cmp	r0, #0, 0
    cf3c:	0a00009a 	beq	d1ac <vprintk+0x29c>
    cf40:	e3500025 	cmp	r0, #37, 0	; 0x25
    cf44:	1afffff6 	bne	cf24 <vprintk+0x14>
    cf48:	e2845001 	add	r5, r4, #1, 0
    cf4c:	e5d42001 	ldrb	r2, [r4, #1]
    cf50:	e2423062 	sub	r3, r2, #98, 0	; 0x62
    cf54:	e3530016 	cmp	r3, #22, 0
    cf58:	979ff103 	ldrls	pc, [pc, r3, lsl #2]
    cf5c:	ea00008b 	b	d190 <vprintk+0x280>
    cf60:	0000cfbc 	.word	0x0000cfbc
    cf64:	0000cffc 	.word	0x0000cffc
    cf68:	0000d114 	.word	0x0000d114
    cf6c:	0000d190 	.word	0x0000d190
    cf70:	0000d190 	.word	0x0000d190
    cf74:	0000d190 	.word	0x0000d190
    cf78:	0000d190 	.word	0x0000d190
    cf7c:	0000d190 	.word	0x0000d190
    cf80:	0000d190 	.word	0x0000d190
    cf84:	0000d190 	.word	0x0000d190
    cf88:	0000d020 	.word	0x0000d020
    cf8c:	0000d190 	.word	0x0000d190
    cf90:	0000d190 	.word	0x0000d190
    cf94:	0000d190 	.word	0x0000d190
    cf98:	0000d0d8 	.word	0x0000d0d8
    cf9c:	0000d190 	.word	0x0000d190
    cfa0:	0000d190 	.word	0x0000d190
    cfa4:	0000d158 	.word	0x0000d158
    cfa8:	0000d190 	.word	0x0000d190
    cfac:	0000cfdc 	.word	0x0000cfdc
    cfb0:	0000d190 	.word	0x0000d190
    cfb4:	0000d190 	.word	0x0000d190
    cfb8:	0000d0d8 	.word	0x0000d0d8
    cfbc:	e59d300c 	ldr	r3, [sp, #12]
    cfc0:	e2832004 	add	r2, r3, #4, 0
    cfc4:	e58d200c 	str	r2, [sp, #12]
    cfc8:	e5931000 	ldr	r1, [r3]
    cfcc:	e3a00002 	mov	r0, #2, 0
    cfd0:	ebffff8a 	bl	ce00 <emit_val>
    cfd4:	e1a04005 	mov	r4, r5
    cfd8:	eaffffd4 	b	cf30 <vprintk+0x20>
    cfdc:	e59d300c 	ldr	r3, [sp, #12]
    cfe0:	e2832004 	add	r2, r3, #4, 0
    cfe4:	e58d200c 	str	r2, [sp, #12]
    cfe8:	e5931000 	ldr	r1, [r3]
    cfec:	e3a0000a 	mov	r0, #10, 0
    cff0:	ebffff82 	bl	ce00 <emit_val>
    cff4:	e1a04005 	mov	r4, r5
    cff8:	eaffffcc 	b	cf30 <vprintk+0x20>
    cffc:	e59f31b0 	ldr	r3, [pc, #432]	; d1b4 <vprintk+0x2a4>
    d000:	e5932000 	ldr	r2, [r3]
    d004:	e59d300c 	ldr	r3, [sp, #12]
    d008:	e2831004 	add	r1, r3, #4, 0
    d00c:	e58d100c 	str	r1, [sp, #12]
    d010:	e5930000 	ldr	r0, [r3]
    d014:	e12fff32 	blx	r2
    d018:	e1a04005 	mov	r4, r5
    d01c:	eaffffc3 	b	cf30 <vprintk+0x20>
    d020:	e2842002 	add	r2, r4, #2, 0
    d024:	e5d43002 	ldrb	r3, [r4, #2]
    d028:	e353006c 	cmp	r3, #108, 0	; 0x6c
    d02c:	1a000018 	bne	d094 <vprintk+0x184>
    d030:	e2845003 	add	r5, r4, #3, 0
    d034:	e5d43003 	ldrb	r3, [r4, #3]
    d038:	e3530078 	cmp	r3, #120, 0	; 0x78
    d03c:	1a00001b 	bne	d0b0 <vprintk+0x1a0>
    d040:	e59f416c 	ldr	r4, [pc, #364]	; d1b4 <vprintk+0x2a4>
    d044:	e5943000 	ldr	r3, [r4]
    d048:	e3a00030 	mov	r0, #48, 0	; 0x30
    d04c:	e12fff33 	blx	r3
    d050:	e5943000 	ldr	r3, [r4]
    d054:	e3a00078 	mov	r0, #120, 0	; 0x78
    d058:	e12fff33 	blx	r3
    d05c:	e59d300c 	ldr	r3, [sp, #12]
    d060:	e2833007 	add	r3, r3, #7, 0
    d064:	e3c33007 	bic	r3, r3, #7, 0
    d068:	e2832008 	add	r2, r3, #8, 0
    d06c:	e58d200c 	str	r2, [sp, #12]
    d070:	e5934000 	ldr	r4, [r3]
    d074:	e5931004 	ldr	r1, [r3, #4]
    d078:	e3510000 	cmp	r1, #0, 0
    d07c:	1a000012 	bne	d0cc <vprintk+0x1bc>
    d080:	e1a01004 	mov	r1, r4
    d084:	e3a00010 	mov	r0, #16, 0
    d088:	ebffff5c 	bl	ce00 <emit_val>
    d08c:	e1a04005 	mov	r4, r5
    d090:	eaffffa6 	b	cf30 <vprintk+0x20>
    d094:	e58d2000 	str	r2, [sp]
    d098:	e3a0303b 	mov	r3, #59, 0	; 0x3b
    d09c:	e59f2114 	ldr	r2, [pc, #276]	; d1b8 <vprintk+0x2a8>
    d0a0:	e59f1114 	ldr	r1, [pc, #276]	; d1bc <vprintk+0x2ac>
    d0a4:	e59f0114 	ldr	r0, [pc, #276]	; d1c0 <vprintk+0x2b0>
    d0a8:	ebffff49 	bl	cdd4 <printk>
    d0ac:	eb000078 	bl	d294 <clean_reboot>
    d0b0:	e58d5000 	str	r5, [sp]
    d0b4:	e3a0303e 	mov	r3, #62, 0	; 0x3e
    d0b8:	e59f20f8 	ldr	r2, [pc, #248]	; d1b8 <vprintk+0x2a8>
    d0bc:	e59f10f8 	ldr	r1, [pc, #248]	; d1bc <vprintk+0x2ac>
    d0c0:	e59f00f8 	ldr	r0, [pc, #248]	; d1c0 <vprintk+0x2b0>
    d0c4:	ebffff42 	bl	cdd4 <printk>
    d0c8:	eb000071 	bl	d294 <clean_reboot>
    d0cc:	e3a00010 	mov	r0, #16, 0
    d0d0:	ebffff4a 	bl	ce00 <emit_val>
    d0d4:	eaffffe9 	b	d080 <vprintk+0x170>
    d0d8:	e59f40d4 	ldr	r4, [pc, #212]	; d1b4 <vprintk+0x2a4>
    d0dc:	e5943000 	ldr	r3, [r4]
    d0e0:	e3a00030 	mov	r0, #48, 0	; 0x30
    d0e4:	e12fff33 	blx	r3
    d0e8:	e5943000 	ldr	r3, [r4]
    d0ec:	e3a00078 	mov	r0, #120, 0	; 0x78
    d0f0:	e12fff33 	blx	r3
    d0f4:	e59d300c 	ldr	r3, [sp, #12]
    d0f8:	e2832004 	add	r2, r3, #4, 0
    d0fc:	e58d200c 	str	r2, [sp, #12]
    d100:	e5931000 	ldr	r1, [r3]
    d104:	e3a00010 	mov	r0, #16, 0
    d108:	ebffff3c 	bl	ce00 <emit_val>
    d10c:	e1a04005 	mov	r4, r5
    d110:	eaffff86 	b	cf30 <vprintk+0x20>
    d114:	e59d300c 	ldr	r3, [sp, #12]
    d118:	e2832004 	add	r2, r3, #4, 0
    d11c:	e58d200c 	str	r2, [sp, #12]
    d120:	e5934000 	ldr	r4, [r3]
    d124:	e3540000 	cmp	r4, #0, 0
    d128:	ba000004 	blt	d140 <vprintk+0x230>
    d12c:	e1a01004 	mov	r1, r4
    d130:	e3a0000a 	mov	r0, #10, 0
    d134:	ebffff31 	bl	ce00 <emit_val>
    d138:	e1a04005 	mov	r4, r5
    d13c:	eaffff7b 	b	cf30 <vprintk+0x20>
    d140:	e59f306c 	ldr	r3, [pc, #108]	; d1b4 <vprintk+0x2a4>
    d144:	e5933000 	ldr	r3, [r3]
    d148:	e3a0002d 	mov	r0, #45, 0	; 0x2d
    d14c:	e12fff33 	blx	r3
    d150:	e2644000 	rsb	r4, r4, #0, 0
    d154:	eafffff4 	b	d12c <vprintk+0x21c>
    d158:	e59d300c 	ldr	r3, [sp, #12]
    d15c:	e2832004 	add	r2, r3, #4, 0
    d160:	e58d200c 	str	r2, [sp, #12]
    d164:	e5934000 	ldr	r4, [r3]
    d168:	e5d40000 	ldrb	r0, [r4]
    d16c:	e3500000 	cmp	r0, #0, 0
    d170:	0a000004 	beq	d188 <vprintk+0x278>
    d174:	e59f3038 	ldr	r3, [pc, #56]	; d1b4 <vprintk+0x2a4>
    d178:	e5933000 	ldr	r3, [r3]
    d17c:	e12fff33 	blx	r3
    d180:	e2844001 	add	r4, r4, #1, 0
    d184:	eafffff7 	b	d168 <vprintk+0x258>
    d188:	e1a04005 	mov	r4, r5
    d18c:	eaffff67 	b	cf30 <vprintk+0x20>
    d190:	e58d2000 	str	r2, [sp]
    d194:	e3a03062 	mov	r3, #98, 0	; 0x62
    d198:	e59f2018 	ldr	r2, [pc, #24]	; d1b8 <vprintk+0x2a8>
    d19c:	e59f1018 	ldr	r1, [pc, #24]	; d1bc <vprintk+0x2ac>
    d1a0:	e59f001c 	ldr	r0, [pc, #28]	; d1c4 <vprintk+0x2b4>
    d1a4:	ebffff0a 	bl	cdd4 <printk>
    d1a8:	eb000039 	bl	d294 <clean_reboot>
    d1ac:	e28dd014 	add	sp, sp, #20, 0
    d1b0:	e8bd8030 	pop	{r4, r5, pc}
    d1b4:	000106a0 	.word	0x000106a0
    d1b8:	0000fd60 	.word	0x0000fd60
    d1bc:	0000fc9c 	.word	0x0000fc9c
    d1c0:	0000fcf4 	.word	0x0000fcf4
    d1c4:	0000fd2c 	.word	0x0000fd2c

0000d1c8 <default_putchar>:
    d1c8:	e92d4010 	push	{r4, lr}
    d1cc:	e1a04000 	mov	r4, r0
    d1d0:	e6ef0070 	uxtb	r0, r0
    d1d4:	eb0000e9 	bl	d580 <uart_put8>
    d1d8:	e1a00004 	mov	r0, r4
    d1dc:	e8bd8010 	pop	{r4, pc}

0000d1e0 <rpi_putchar_set>:
    d1e0:	e59f300c 	ldr	r3, [pc, #12]	; d1f4 <rpi_putchar_set+0x14>
    d1e4:	e5932000 	ldr	r2, [r3]
    d1e8:	e5830000 	str	r0, [r3]
    d1ec:	e1a00002 	mov	r0, r2
    d1f0:	e12fff1e 	bx	lr
    d1f4:	000106a0 	.word	0x000106a0

0000d1f8 <strcat>:
    d1f8:	e1a02000 	mov	r2, r0
    d1fc:	e1a03002 	mov	r3, r2
    d200:	e2822001 	add	r2, r2, #1, 0
    d204:	e5d3c000 	ldrb	ip, [r3]
    d208:	e35c0000 	cmp	ip, #0, 0
    d20c:	1afffffa 	bne	d1fc <strcat+0x4>
    d210:	e2433001 	sub	r3, r3, #1, 0
    d214:	e5d12000 	ldrb	r2, [r1]
    d218:	e2811001 	add	r1, r1, #1, 0
    d21c:	e5e32001 	strb	r2, [r3, #1]!
    d220:	e3520000 	cmp	r2, #0, 0
    d224:	1afffffa 	bne	d214 <strcat+0x1c>
    d228:	e12fff1e 	bx	lr

0000d22c <strcmp>:
    d22c:	e5d03000 	ldrb	r3, [r0]
    d230:	e3530000 	cmp	r3, #0, 0
    d234:	0a000004 	beq	d24c <strcmp+0x20>
    d238:	e5d12000 	ldrb	r2, [r1]
    d23c:	e1530002 	cmp	r3, r2
    d240:	02800001 	addeq	r0, r0, #1, 0
    d244:	02811001 	addeq	r1, r1, #1, 0
    d248:	0afffff7 	beq	d22c <strcmp>
    d24c:	e5d10000 	ldrb	r0, [r1]
    d250:	e0430000 	sub	r0, r3, r0
    d254:	e12fff1e 	bx	lr

0000d258 <strcpy>:
    d258:	e1a0c000 	mov	ip, r0
    d25c:	e5d12000 	ldrb	r2, [r1]
    d260:	e2811001 	add	r1, r1, #1, 0
    d264:	e5cc2000 	strb	r2, [ip]
    d268:	e28cc001 	add	ip, ip, #1, 0
    d26c:	e3520000 	cmp	r2, #0, 0
    d270:	1afffff9 	bne	d25c <strcpy+0x4>
    d274:	e12fff1e 	bx	lr

0000d278 <strlen>:
    d278:	e1a02000 	mov	r2, r0
    d27c:	e3a00000 	mov	r0, #0, 0
    d280:	e7d23000 	ldrb	r3, [r2, r0]
    d284:	e3530000 	cmp	r3, #0, 0
    d288:	012fff1e 	bxeq	lr
    d28c:	e2800001 	add	r0, r0, #1, 0
    d290:	eafffffa 	b	d280 <strlen+0x8>

0000d294 <clean_reboot>:
    d294:	e92d4010 	push	{r4, lr}
    d298:	e59f0010 	ldr	r0, [pc, #16]	; d2b0 <clean_reboot+0x1c>
    d29c:	eb000253 	bl	dbf0 <putk>
    d2a0:	eb0000ee 	bl	d660 <uart_flush_tx>
    d2a4:	e3a0000a 	mov	r0, #10, 0
    d2a8:	eb000068 	bl	d450 <delay_ms>
    d2ac:	eb00003d 	bl	d3a8 <rpi_reboot>
    d2b0:	0000fd68 	.word	0x0000fd68

0000d2b4 <_cstart>:
    d2b4:	e52de004 	push	{lr}		; (str lr, [sp, #-4]!)
    d2b8:	e24dd014 	sub	sp, sp, #20, 0
    d2bc:	eb000027 	bl	d360 <custom_loader>
    d2c0:	e59f3084 	ldr	r3, [pc, #132]	; d34c <_cstart+0x98>
    d2c4:	ea000001 	b	d2d0 <_cstart+0x1c>
    d2c8:	e3a02000 	mov	r2, #0, 0
    d2cc:	e4832004 	str	r2, [r3], #4
    d2d0:	e59f2078 	ldr	r2, [pc, #120]	; d350 <_cstart+0x9c>
    d2d4:	e1530002 	cmp	r3, r2
    d2d8:	3afffffa 	bcc	d2c8 <_cstart+0x14>
    d2dc:	e3a02a01 	mov	r2, #4096	; 0x1000
    d2e0:	e3a01000 	mov	r1, #0, 0
    d2e4:	e1a00001 	mov	r0, r1
    d2e8:	ebfffe91 	bl	cd34 <memset>
    d2ec:	e3a03000 	mov	r3, #0, 0
    d2f0:	e3530b01 	cmp	r3, #1024	; 0x400
    d2f4:	2a00000f 	bcs	d338 <_cstart+0x84>
    d2f8:	e1a02103 	lsl	r2, r3, #2
    d2fc:	e5921000 	ldr	r1, [r2]
    d300:	e3510000 	cmp	r1, #0, 0
    d304:	02833001 	addeq	r3, r3, #1, 0
    d308:	0afffff8 	beq	d2f0 <_cstart+0x3c>
    d30c:	e5923000 	ldr	r3, [r2]
    d310:	e3a01001 	mov	r1, #1, 0
    d314:	e58d1008 	str	r1, [sp, #8]
    d318:	e58d3004 	str	r3, [sp, #4]
    d31c:	e58d2000 	str	r2, [sp]
    d320:	e3a03012 	mov	r3, #18, 0
    d324:	e59f2028 	ldr	r2, [pc, #40]	; d354 <_cstart+0xa0>
    d328:	e59f1028 	ldr	r1, [pc, #40]	; d358 <_cstart+0xa4>
    d32c:	e59f0028 	ldr	r0, [pc, #40]	; d35c <_cstart+0xa8>
    d330:	ebfffea7 	bl	cdd4 <printk>
    d334:	ebffffd6 	bl	d294 <clean_reboot>
    d338:	eb000050 	bl	d480 <uart_init>
    d33c:	e3a03001 	mov	r3, #1, 0
    d340:	ee0f3f1c 	mcr	15, 0, r3, cr15, cr12, {0}
    d344:	ebffeb5d 	bl	80c0 <notmain>
    d348:	ebffffd1 	bl	d294 <clean_reboot>
    d34c:	000106b0 	.word	0x000106b0
    d350:	00010be0 	.word	0x00010be0
    d354:	0000fdf8 	.word	0x0000fdf8
    d358:	0000fd74 	.word	0x0000fd74
    d35c:	0000fdbc 	.word	0x0000fdbc

0000d360 <custom_loader>:
    d360:	e12fff1e 	bx	lr

0000d364 <dev_barrier>:
    d364:	ea000002 	b	d374 <dsb>

0000d368 <dmb>:
    d368:	e3a00000 	mov	r0, #0, 0
    d36c:	ee070fba 	mcr	15, 0, r0, cr7, cr10, {5}
    d370:	e12fff1e 	bx	lr

0000d374 <dsb>:
    d374:	ee070f9a 	mcr	15, 0, r0, cr7, cr10, {4}
    d378:	e12fff1e 	bx	lr

0000d37c <at_user_level>:
    d37c:	e10f0000 	mrs	r0, CPSR
    d380:	e200001f 	and	r0, r0, #31, 0
    d384:	e3500010 	cmp	r0, #16, 0
    d388:	13a00000 	movne	r0, #0, 0
    d38c:	03a00001 	moveq	r0, #1, 0
    d390:	e12fff1e 	bx	lr

0000d394 <set_user_level>:
    d394:	e10f3000 	mrs	r3, CPSR
    d398:	e3c3301f 	bic	r3, r3, #31, 0
    d39c:	e3833010 	orr	r3, r3, #16, 0
    d3a0:	e129f003 	msr	CPSR_fc, r3
    d3a4:	e12fff1e 	bx	lr

0000d3a8 <rpi_reboot>:
    d3a8:	e92d4010 	push	{r4, lr}
    d3ac:	ebfffff2 	bl	d37c <at_user_level>
    d3b0:	e3500000 	cmp	r0, #0, 0
    d3b4:	1a00000a 	bne	d3e4 <rpi_reboot+0x3c>
    d3b8:	eb000219 	bl	dc24 <reboot_callout>
    d3bc:	eb0000a7 	bl	d660 <uart_flush_tx>
    d3c0:	e3a0000a 	mov	r0, #10, 0
    d3c4:	eb000021 	bl	d450 <delay_ms>
    d3c8:	e59f101c 	ldr	r1, [pc, #28]	; d3ec <rpi_reboot+0x44>
    d3cc:	e59f001c 	ldr	r0, [pc, #28]	; d3f0 <rpi_reboot+0x48>
    d3d0:	ebffeb13 	bl	8024 <PUT32>
    d3d4:	e59f1018 	ldr	r1, [pc, #24]	; d3f4 <rpi_reboot+0x4c>
    d3d8:	e59f0018 	ldr	r0, [pc, #24]	; d3f8 <rpi_reboot+0x50>
    d3dc:	ebffeb10 	bl	8024 <PUT32>
    d3e0:	eafffffe 	b	d3e0 <rpi_reboot+0x38>
    d3e4:	ebffffea 	bl	d394 <set_user_level>
    d3e8:	eafffff2 	b	d3b8 <rpi_reboot+0x10>
    d3ec:	5a000001 	.word	0x5a000001
    d3f0:	20100024 	.word	0x20100024
    d3f4:	5a000020 	.word	0x5a000020
    d3f8:	2010001c 	.word	0x2010001c

0000d3fc <timer_get_usec_raw>:
    d3fc:	e92d4010 	push	{r4, lr}
    d400:	e59f0004 	ldr	r0, [pc, #4]	; d40c <timer_get_usec_raw+0x10>
    d404:	ebffeb08 	bl	802c <GET32>
    d408:	e8bd8010 	pop	{r4, pc}
    d40c:	20003004 	.word	0x20003004

0000d410 <timer_get_usec>:
    d410:	e92d4010 	push	{r4, lr}
    d414:	ebffffd2 	bl	d364 <dev_barrier>
    d418:	ebfffff7 	bl	d3fc <timer_get_usec_raw>
    d41c:	e1a04000 	mov	r4, r0
    d420:	ebffffcf 	bl	d364 <dev_barrier>
    d424:	e1a00004 	mov	r0, r4
    d428:	e8bd8010 	pop	{r4, pc}

0000d42c <delay_us>:
    d42c:	e92d4070 	push	{r4, r5, r6, lr}
    d430:	e1a05000 	mov	r5, r0
    d434:	ebfffff5 	bl	d410 <timer_get_usec>
    d438:	e1a04000 	mov	r4, r0
    d43c:	ebfffff3 	bl	d410 <timer_get_usec>
    d440:	e0400004 	sub	r0, r0, r4
    d444:	e1500005 	cmp	r0, r5
    d448:	3afffffb 	bcc	d43c <delay_us+0x10>
    d44c:	e8bd8070 	pop	{r4, r5, r6, pc}

0000d450 <delay_ms>:
    d450:	e92d4010 	push	{r4, lr}
    d454:	e0603280 	rsb	r3, r0, r0, lsl #5
    d458:	e0800103 	add	r0, r0, r3, lsl #2
    d45c:	e1a00180 	lsl	r0, r0, #3
    d460:	ebfffff1 	bl	d42c <delay_us>
    d464:	e8bd8010 	pop	{r4, pc}

0000d468 <delay_sec>:
    d468:	e92d4010 	push	{r4, lr}
    d46c:	e0603280 	rsb	r3, r0, r0, lsl #5
    d470:	e0800103 	add	r0, r0, r3, lsl #2
    d474:	e1a00180 	lsl	r0, r0, #3
    d478:	ebfffff4 	bl	d450 <delay_ms>
    d47c:	e8bd8010 	pop	{r4, pc}

0000d480 <uart_init>:
    d480:	e92d4070 	push	{r4, r5, r6, lr}
    d484:	ebffffb6 	bl	d364 <dev_barrier>
    d488:	e3a01002 	mov	r1, #2, 0
    d48c:	e3a0000e 	mov	r0, #14, 0
    d490:	eb00008e 	bl	d6d0 <gpio_set_function>
    d494:	e3a01002 	mov	r1, #2, 0
    d498:	e3a0000f 	mov	r0, #15, 0
    d49c:	eb00008b 	bl	d6d0 <gpio_set_function>
    d4a0:	ebffffaf 	bl	d364 <dev_barrier>
    d4a4:	e59f409c 	ldr	r4, [pc, #156]	; d548 <uart_init+0xc8>
    d4a8:	e1a00004 	mov	r0, r4
    d4ac:	ebffeade 	bl	802c <GET32>
    d4b0:	e3801001 	orr	r1, r0, #1, 0
    d4b4:	e1a00004 	mov	r0, r4
    d4b8:	ebffead9 	bl	8024 <PUT32>
    d4bc:	ebffffa8 	bl	d364 <dev_barrier>
    d4c0:	e284405c 	add	r4, r4, #92, 0	; 0x5c
    d4c4:	e1a00004 	mov	r0, r4
    d4c8:	ebffead7 	bl	802c <GET32>
    d4cc:	e3c01003 	bic	r1, r0, #3, 0
    d4d0:	e1a00004 	mov	r0, r4
    d4d4:	ebffead2 	bl	8024 <PUT32>
    d4d8:	e59f506c 	ldr	r5, [pc, #108]	; d54c <uart_init+0xcc>
    d4dc:	e1a00005 	mov	r0, r5
    d4e0:	ebffead1 	bl	802c <GET32>
    d4e4:	e3801006 	orr	r1, r0, #6, 0
    d4e8:	e1a00005 	mov	r0, r5
    d4ec:	ebffeacc 	bl	8024 <PUT32>
    d4f0:	e2455004 	sub	r5, r5, #4, 0
    d4f4:	e1a00005 	mov	r0, r5
    d4f8:	ebffeacb 	bl	802c <GET32>
    d4fc:	e3c01003 	bic	r1, r0, #3, 0
    d500:	e1a00005 	mov	r0, r5
    d504:	ebffeac6 	bl	8024 <PUT32>
    d508:	e59f1040 	ldr	r1, [pc, #64]	; d550 <uart_init+0xd0>
    d50c:	e59f0040 	ldr	r0, [pc, #64]	; d554 <uart_init+0xd4>
    d510:	ebffeac3 	bl	8024 <PUT32>
    d514:	e2855008 	add	r5, r5, #8, 0
    d518:	e1a00005 	mov	r0, r5
    d51c:	ebffeac2 	bl	802c <GET32>
    d520:	e3801003 	orr	r1, r0, #3, 0
    d524:	e1a00005 	mov	r0, r5
    d528:	ebffeabd 	bl	8024 <PUT32>
    d52c:	e1a00004 	mov	r0, r4
    d530:	ebffeabd 	bl	802c <GET32>
    d534:	e3801003 	orr	r1, r0, #3, 0
    d538:	e1a00004 	mov	r0, r4
    d53c:	ebffeab8 	bl	8024 <PUT32>
    d540:	ebffff87 	bl	d364 <dev_barrier>
    d544:	e8bd8070 	pop	{r4, r5, r6, pc}
    d548:	20215004 	.word	0x20215004
    d54c:	20215048 	.word	0x20215048
    d550:	0000010f 	.word	0x0000010f
    d554:	20215068 	.word	0x20215068

0000d558 <uart_can_put8>:
    d558:	e92d4010 	push	{r4, lr}
    d55c:	ebffff80 	bl	d364 <dev_barrier>
    d560:	e59f0014 	ldr	r0, [pc, #20]	; d57c <uart_can_put8+0x24>
    d564:	ebffeab0 	bl	802c <GET32>
    d568:	e1a042a0 	lsr	r4, r0, #5
    d56c:	e2044001 	and	r4, r4, #1, 0
    d570:	ebffff7b 	bl	d364 <dev_barrier>
    d574:	e1a00004 	mov	r0, r4
    d578:	e8bd8010 	pop	{r4, pc}
    d57c:	20215054 	.word	0x20215054

0000d580 <uart_put8>:
    d580:	e92d4070 	push	{r4, r5, r6, lr}
    d584:	e1a04000 	mov	r4, r0
    d588:	ebffff75 	bl	d364 <dev_barrier>
    d58c:	ebfffff1 	bl	d558 <uart_can_put8>
    d590:	e3500000 	cmp	r0, #0, 0
    d594:	0afffffc 	beq	d58c <uart_put8+0xc>
    d598:	e59f5020 	ldr	r5, [pc, #32]	; d5c0 <uart_put8+0x40>
    d59c:	e1a00005 	mov	r0, r5
    d5a0:	ebffeaa1 	bl	802c <GET32>
    d5a4:	e3c010ff 	bic	r1, r0, #255, 0	; 0xff
    d5a8:	e1841001 	orr	r1, r4, r1
    d5ac:	e1a00005 	mov	r0, r5
    d5b0:	ebffea9b 	bl	8024 <PUT32>
    d5b4:	ebffff6a 	bl	d364 <dev_barrier>
    d5b8:	e3a00000 	mov	r0, #0, 0
    d5bc:	e8bd8070 	pop	{r4, r5, r6, pc}
    d5c0:	20215040 	.word	0x20215040

0000d5c4 <uart_has_data>:
    d5c4:	e92d4010 	push	{r4, lr}
    d5c8:	ebffff65 	bl	d364 <dev_barrier>
    d5cc:	e59f0008 	ldr	r0, [pc, #8]	; d5dc <uart_has_data+0x18>
    d5d0:	ebffea95 	bl	802c <GET32>
    d5d4:	e2000001 	and	r0, r0, #1, 0
    d5d8:	e8bd8010 	pop	{r4, pc}
    d5dc:	20215054 	.word	0x20215054

0000d5e0 <uart_get8>:
    d5e0:	e92d4010 	push	{r4, lr}
    d5e4:	ebffff5e 	bl	d364 <dev_barrier>
    d5e8:	ebfffff5 	bl	d5c4 <uart_has_data>
    d5ec:	e3500000 	cmp	r0, #0, 0
    d5f0:	0afffffc 	beq	d5e8 <uart_get8+0x8>
    d5f4:	e59f0010 	ldr	r0, [pc, #16]	; d60c <uart_get8+0x2c>
    d5f8:	ebffea8b 	bl	802c <GET32>
    d5fc:	e6ef4070 	uxtb	r4, r0
    d600:	ebffff57 	bl	d364 <dev_barrier>
    d604:	e1a00004 	mov	r0, r4
    d608:	e8bd8010 	pop	{r4, pc}
    d60c:	20215040 	.word	0x20215040

0000d610 <uart_get8_async>:
    d610:	e92d4010 	push	{r4, lr}
    d614:	ebffff52 	bl	d364 <dev_barrier>
    d618:	ebffffe9 	bl	d5c4 <uart_has_data>
    d61c:	e3500000 	cmp	r0, #0, 0
    d620:	0a000002 	beq	d630 <uart_get8_async+0x20>
    d624:	ebffff4e 	bl	d364 <dev_barrier>
    d628:	ebffffec 	bl	d5e0 <uart_get8>
    d62c:	e8bd8010 	pop	{r4, pc}
    d630:	e3e00000 	mvn	r0, #0, 0
    d634:	e8bd8010 	pop	{r4, pc}

0000d638 <uart_tx_is_empty>:
    d638:	e92d4010 	push	{r4, lr}
    d63c:	ebffff48 	bl	d364 <dev_barrier>
    d640:	e59f0014 	ldr	r0, [pc, #20]	; d65c <uart_tx_is_empty+0x24>
    d644:	ebffea78 	bl	802c <GET32>
    d648:	e1a044a0 	lsr	r4, r0, #9
    d64c:	e2044001 	and	r4, r4, #1, 0
    d650:	ebffff43 	bl	d364 <dev_barrier>
    d654:	e1a00004 	mov	r0, r4
    d658:	e8bd8010 	pop	{r4, pc}
    d65c:	20215064 	.word	0x20215064

0000d660 <uart_flush_tx>:
    d660:	e92d4010 	push	{r4, lr}
    d664:	ebffff3e 	bl	d364 <dev_barrier>
    d668:	ebfffff2 	bl	d638 <uart_tx_is_empty>
    d66c:	e3500000 	cmp	r0, #0, 0
    d670:	0afffffc 	beq	d668 <uart_flush_tx+0x8>
    d674:	ebffff3a 	bl	d364 <dev_barrier>
    d678:	e8bd8010 	pop	{r4, pc}

0000d67c <uart_disable>:
    d67c:	e92d4010 	push	{r4, lr}
    d680:	ebffff37 	bl	d364 <dev_barrier>
    d684:	ebffffeb 	bl	d638 <uart_tx_is_empty>
    d688:	e3500000 	cmp	r0, #0, 0
    d68c:	0afffffc 	beq	d684 <uart_disable+0x8>
    d690:	ebfffff2 	bl	d660 <uart_flush_tx>
    d694:	e59f4030 	ldr	r4, [pc, #48]	; d6cc <uart_disable+0x50>
    d698:	e1a00004 	mov	r0, r4
    d69c:	ebffea62 	bl	802c <GET32>
    d6a0:	e3c01003 	bic	r1, r0, #3, 0
    d6a4:	e1a00004 	mov	r0, r4
    d6a8:	ebffea5d 	bl	8024 <PUT32>
    d6ac:	e244405c 	sub	r4, r4, #92, 0	; 0x5c
    d6b0:	e1a00004 	mov	r0, r4
    d6b4:	ebffea5c 	bl	802c <GET32>
    d6b8:	e3c01001 	bic	r1, r0, #1, 0
    d6bc:	e1a00004 	mov	r0, r4
    d6c0:	ebffea57 	bl	8024 <PUT32>
    d6c4:	ebffff26 	bl	d364 <dev_barrier>
    d6c8:	e8bd8010 	pop	{r4, pc}
    d6cc:	20215060 	.word	0x20215060

0000d6d0 <gpio_set_function>:
    d6d0:	e350002f 	cmp	r0, #47, 0	; 0x2f
    d6d4:	1350001f 	cmpne	r0, #31, 0
    d6d8:	812fff1e 	bxhi	lr
    d6dc:	e92d4070 	push	{r4, r5, r6, lr}
    d6e0:	e1a05001 	mov	r5, r1
    d6e4:	e3d13007 	bics	r3, r1, #7, 0
    d6e8:	18bd8070 	popne	{r4, r5, r6, pc}
    d6ec:	e59f3040 	ldr	r3, [pc, #64]	; d734 <gpio_set_function+0x64>
    d6f0:	e0832093 	umull	r2, r3, r3, r0
    d6f4:	e1a031a3 	lsr	r3, r3, #3
    d6f8:	e1a02003 	mov	r2, r3
    d6fc:	e0833103 	add	r3, r3, r3, lsl #2
    d700:	e0403083 	sub	r3, r0, r3, lsl #1
    d704:	e0834083 	add	r4, r3, r3, lsl #1
    d708:	e2820302 	add	r0, r2, #134217728	; 0x8000000
    d70c:	e2800702 	add	r0, r0, #524288	; 0x80000
    d710:	e1a06100 	lsl	r6, r0, #2
    d714:	e1a00006 	mov	r0, r6
    d718:	ebffea43 	bl	802c <GET32>
    d71c:	e3a01007 	mov	r1, #7, 0
    d720:	e1c01411 	bic	r1, r0, r1, lsl r4
    d724:	e1811415 	orr	r1, r1, r5, lsl r4
    d728:	e1a00006 	mov	r0, r6
    d72c:	ebffea3c 	bl	8024 <PUT32>
    d730:	e8bd8070 	pop	{r4, r5, r6, pc}
    d734:	cccccccd 	.word	0xcccccccd

0000d738 <gpio_set_output>:
    d738:	e92d4010 	push	{r4, lr}
    d73c:	e3a01001 	mov	r1, #1, 0
    d740:	ebffffe2 	bl	d6d0 <gpio_set_function>
    d744:	e8bd8010 	pop	{r4, pc}

0000d748 <gpio_set_on>:
    d748:	e92d4010 	push	{r4, lr}
    d74c:	e350002f 	cmp	r0, #47, 0	; 0x2f
    d750:	0a000006 	beq	d770 <gpio_set_on+0x28>
    d754:	e350001f 	cmp	r0, #31, 0
    d758:	88bd8010 	pophi	{r4, pc}
    d75c:	e3a01001 	mov	r1, #1, 0
    d760:	e1a01011 	lsl	r1, r1, r0
    d764:	e59f001c 	ldr	r0, [pc, #28]	; d788 <gpio_set_on+0x40>
    d768:	ebffea2d 	bl	8024 <PUT32>
    d76c:	e8bd8010 	pop	{r4, pc}
    d770:	e200001f 	and	r0, r0, #31, 0
    d774:	e3a01001 	mov	r1, #1, 0
    d778:	e1a01011 	lsl	r1, r1, r0
    d77c:	e59f0008 	ldr	r0, [pc, #8]	; d78c <gpio_set_on+0x44>
    d780:	ebffea27 	bl	8024 <PUT32>
    d784:	e8bd8010 	pop	{r4, pc}
    d788:	2020001c 	.word	0x2020001c
    d78c:	20200020 	.word	0x20200020

0000d790 <gpio_set_off>:
    d790:	e92d4010 	push	{r4, lr}
    d794:	e350002f 	cmp	r0, #47, 0	; 0x2f
    d798:	0a000006 	beq	d7b8 <gpio_set_off+0x28>
    d79c:	e350001f 	cmp	r0, #31, 0
    d7a0:	88bd8010 	pophi	{r4, pc}
    d7a4:	e3a01001 	mov	r1, #1, 0
    d7a8:	e1a01011 	lsl	r1, r1, r0
    d7ac:	e59f001c 	ldr	r0, [pc, #28]	; d7d0 <gpio_set_off+0x40>
    d7b0:	ebffea1b 	bl	8024 <PUT32>
    d7b4:	e8bd8010 	pop	{r4, pc}
    d7b8:	e200001f 	and	r0, r0, #31, 0
    d7bc:	e3a01001 	mov	r1, #1, 0
    d7c0:	e1a01011 	lsl	r1, r1, r0
    d7c4:	e59f0008 	ldr	r0, [pc, #8]	; d7d4 <gpio_set_off+0x44>
    d7c8:	ebffea15 	bl	8024 <PUT32>
    d7cc:	e8bd8010 	pop	{r4, pc}
    d7d0:	20200028 	.word	0x20200028
    d7d4:	2020002c 	.word	0x2020002c

0000d7d8 <gpio_set_input>:
    d7d8:	e92d4010 	push	{r4, lr}
    d7dc:	e3a01000 	mov	r1, #0, 0
    d7e0:	ebffffba 	bl	d6d0 <gpio_set_function>
    d7e4:	e8bd8010 	pop	{r4, pc}

0000d7e8 <gpio_write>:
    d7e8:	e92d4010 	push	{r4, lr}
    d7ec:	e3510000 	cmp	r1, #0, 0
    d7f0:	0a000001 	beq	d7fc <gpio_write+0x14>
    d7f4:	ebffffd3 	bl	d748 <gpio_set_on>
    d7f8:	e8bd8010 	pop	{r4, pc}
    d7fc:	ebffffe3 	bl	d790 <gpio_set_off>
    d800:	e8bd8010 	pop	{r4, pc}

0000d804 <gpio_read>:
    d804:	e350001f 	cmp	r0, #31, 0
    d808:	8a000006 	bhi	d828 <gpio_read+0x24>
    d80c:	e92d4010 	push	{r4, lr}
    d810:	e1a04000 	mov	r4, r0
    d814:	e59f0014 	ldr	r0, [pc, #20]	; d830 <gpio_read+0x2c>
    d818:	ebffea03 	bl	802c <GET32>
    d81c:	e1a00430 	lsr	r0, r0, r4
    d820:	e2000001 	and	r0, r0, #1, 0
    d824:	e8bd8010 	pop	{r4, pc}
    d828:	e3e00000 	mvn	r0, #0, 0
    d82c:	e12fff1e 	bx	lr
    d830:	20200034 	.word	0x20200034

0000d834 <using_staff_gpio>:
    d834:	e12fff1e 	bx	lr

0000d838 <kmalloc_heap_end>:
    d838:	e59f3004 	ldr	r3, [pc, #4]	; d844 <kmalloc_heap_end+0xc>
    d83c:	e5930000 	ldr	r0, [r3]
    d840:	e12fff1e 	bx	lr
    d844:	000106a4 	.word	0x000106a4

0000d848 <kmalloc_heap_start>:
    d848:	e59f3004 	ldr	r3, [pc, #4]	; d854 <kmalloc_heap_start+0xc>
    d84c:	e5930004 	ldr	r0, [r3, #4]
    d850:	e12fff1e 	bx	lr
    d854:	000106a4 	.word	0x000106a4

0000d858 <kmalloc_heap_ptr>:
    d858:	e59f3004 	ldr	r3, [pc, #4]	; d864 <kmalloc_heap_ptr+0xc>
    d85c:	e5930008 	ldr	r0, [r3, #8]
    d860:	e12fff1e 	bx	lr
    d864:	000106a4 	.word	0x000106a4

0000d868 <kmalloc_init_set_start>:
    d868:	e52de004 	push	{lr}		; (str lr, [sp, #-4]!)
    d86c:	e24dd00c 	sub	sp, sp, #12, 0
    d870:	e59f30a8 	ldr	r3, [pc, #168]	; d920 <kmalloc_init_set_start+0xb8>
    d874:	e5933000 	ldr	r3, [r3]
    d878:	e3530000 	cmp	r3, #0, 0
    d87c:	1a00000f 	bne	d8c0 <kmalloc_init_set_start+0x58>
    d880:	e59f3098 	ldr	r3, [pc, #152]	; d920 <kmalloc_init_set_start+0xb8>
    d884:	e3a02001 	mov	r2, #1, 0
    d888:	e5832000 	str	r2, [r3]
    d88c:	e3510000 	cmp	r1, #0, 0
    d890:	0a000010 	beq	d8d8 <kmalloc_init_set_start+0x70>
    d894:	e59f3088 	ldr	r3, [pc, #136]	; d924 <kmalloc_init_set_start+0xbc>
    d898:	e5933008 	ldr	r3, [r3, #8]
    d89c:	e1530000 	cmp	r3, r0
    d8a0:	8a000014 	bhi	d8f8 <kmalloc_init_set_start+0x90>
    d8a4:	e59f3078 	ldr	r3, [pc, #120]	; d924 <kmalloc_init_set_start+0xbc>
    d8a8:	e5830008 	str	r0, [r3, #8]
    d8ac:	e5830004 	str	r0, [r3, #4]
    d8b0:	e0800001 	add	r0, r0, r1
    d8b4:	e5830000 	str	r0, [r3]
    d8b8:	e28dd00c 	add	sp, sp, #12, 0
    d8bc:	e49df004 	pop	{pc}		; (ldr pc, [sp], #4)
    d8c0:	e3a03031 	mov	r3, #49, 0	; 0x31
    d8c4:	e59f205c 	ldr	r2, [pc, #92]	; d928 <kmalloc_init_set_start+0xc0>
    d8c8:	e59f105c 	ldr	r1, [pc, #92]	; d92c <kmalloc_init_set_start+0xc4>
    d8cc:	e59f005c 	ldr	r0, [pc, #92]	; d930 <kmalloc_init_set_start+0xc8>
    d8d0:	ebfffd3f 	bl	cdd4 <printk>
    d8d4:	ebfffe6e 	bl	d294 <clean_reboot>
    d8d8:	e59f3054 	ldr	r3, [pc, #84]	; d934 <kmalloc_init_set_start+0xcc>
    d8dc:	e58d3000 	str	r3, [sp]
    d8e0:	e3a03036 	mov	r3, #54, 0	; 0x36
    d8e4:	e59f203c 	ldr	r2, [pc, #60]	; d928 <kmalloc_init_set_start+0xc0>
    d8e8:	e59f103c 	ldr	r1, [pc, #60]	; d92c <kmalloc_init_set_start+0xc4>
    d8ec:	e59f0044 	ldr	r0, [pc, #68]	; d938 <kmalloc_init_set_start+0xd0>
    d8f0:	ebfffd37 	bl	cdd4 <printk>
    d8f4:	ebfffe66 	bl	d294 <clean_reboot>
    d8f8:	e59f3024 	ldr	r3, [pc, #36]	; d924 <kmalloc_init_set_start+0xbc>
    d8fc:	e5933000 	ldr	r3, [r3]
    d900:	e58d3004 	str	r3, [sp, #4]
    d904:	e58d0000 	str	r0, [sp]
    d908:	e3a0303a 	mov	r3, #58, 0	; 0x3a
    d90c:	e59f2014 	ldr	r2, [pc, #20]	; d928 <kmalloc_init_set_start+0xc0>
    d910:	e59f1014 	ldr	r1, [pc, #20]	; d92c <kmalloc_init_set_start+0xc4>
    d914:	e59f0020 	ldr	r0, [pc, #32]	; d93c <kmalloc_init_set_start+0xd4>
    d918:	ebfffd2d 	bl	cdd4 <printk>
    d91c:	ebfffe5c 	bl	d294 <clean_reboot>
    d920:	000109d8 	.word	0x000109d8
    d924:	000106a4 	.word	0x000106a4
    d928:	0000ffdc 	.word	0x0000ffdc
    d92c:	0000fe08 	.word	0x0000fe08
    d930:	0000fe14 	.word	0x0000fe14
    d934:	0000fe48 	.word	0x0000fe48
    d938:	0000e120 	.word	0x0000e120
    d93c:	0000fe54 	.word	0x0000fe54

0000d940 <kmalloc_notzero>:
    d940:	e52de004 	push	{lr}		; (str lr, [sp, #-4]!)
    d944:	e24dd00c 	sub	sp, sp, #12, 0
    d948:	e3500000 	cmp	r0, #0, 0
    d94c:	0a00000d 	beq	d988 <kmalloc_notzero+0x48>
    d950:	e2800007 	add	r0, r0, #7, 0
    d954:	e3c03007 	bic	r3, r0, #7, 0
    d958:	e59f208c 	ldr	r2, [pc, #140]	; d9ec <kmalloc_notzero+0xac>
    d95c:	e5920008 	ldr	r0, [r2, #8]
    d960:	e3100007 	tst	r0, #7, 0
    d964:	1a00000f 	bne	d9a8 <kmalloc_notzero+0x68>
    d968:	e0802003 	add	r2, r0, r3
    d96c:	e59f1078 	ldr	r1, [pc, #120]	; d9ec <kmalloc_notzero+0xac>
    d970:	e5812008 	str	r2, [r1, #8]
    d974:	e5911000 	ldr	r1, [r1]
    d978:	e1520001 	cmp	r2, r1
    d97c:	8a000011 	bhi	d9c8 <kmalloc_notzero+0x88>
    d980:	e28dd00c 	add	sp, sp, #12, 0
    d984:	e49df004 	pop	{pc}		; (ldr pc, [sp], #4)
    d988:	e59f3060 	ldr	r3, [pc, #96]	; d9f0 <kmalloc_notzero+0xb0>
    d98c:	e58d3000 	str	r3, [sp]
    d990:	e3a03053 	mov	r3, #83, 0	; 0x53
    d994:	e59f2058 	ldr	r2, [pc, #88]	; d9f4 <kmalloc_notzero+0xb4>
    d998:	e59f1058 	ldr	r1, [pc, #88]	; d9f8 <kmalloc_notzero+0xb8>
    d99c:	e59f0058 	ldr	r0, [pc, #88]	; d9fc <kmalloc_notzero+0xbc>
    d9a0:	ebfffd0b 	bl	cdd4 <printk>
    d9a4:	ebfffe3a 	bl	d294 <clean_reboot>
    d9a8:	e59f3050 	ldr	r3, [pc, #80]	; da00 <kmalloc_notzero+0xc0>
    d9ac:	e58d3000 	str	r3, [sp]
    d9b0:	e3a03056 	mov	r3, #86, 0	; 0x56
    d9b4:	e59f2038 	ldr	r2, [pc, #56]	; d9f4 <kmalloc_notzero+0xb4>
    d9b8:	e59f1038 	ldr	r1, [pc, #56]	; d9f8 <kmalloc_notzero+0xb8>
    d9bc:	e59f0038 	ldr	r0, [pc, #56]	; d9fc <kmalloc_notzero+0xbc>
    d9c0:	ebfffd03 	bl	cdd4 <printk>
    d9c4:	ebfffe32 	bl	d294 <clean_reboot>
    d9c8:	e0422001 	sub	r2, r2, r1
    d9cc:	e58d2004 	str	r2, [sp, #4]
    d9d0:	e58d3000 	str	r3, [sp]
    d9d4:	e3a0305b 	mov	r3, #91, 0	; 0x5b
    d9d8:	e59f2014 	ldr	r2, [pc, #20]	; d9f4 <kmalloc_notzero+0xb4>
    d9dc:	e59f1014 	ldr	r1, [pc, #20]	; d9f8 <kmalloc_notzero+0xb8>
    d9e0:	e59f001c 	ldr	r0, [pc, #28]	; da04 <kmalloc_notzero+0xc4>
    d9e4:	ebfffcfa 	bl	cdd4 <printk>
    d9e8:	ebfffe29 	bl	d294 <clean_reboot>
    d9ec:	000106a4 	.word	0x000106a4
    d9f0:	0000fe4c 	.word	0x0000fe4c
    d9f4:	0000fff4 	.word	0x0000fff4
    d9f8:	0000fe08 	.word	0x0000fe08
    d9fc:	0000e120 	.word	0x0000e120
    da00:	0000fe98 	.word	0x0000fe98
    da04:	0000feb0 	.word	0x0000feb0

0000da08 <kmalloc>:
    da08:	e92d4030 	push	{r4, r5, lr}
    da0c:	e24dd00c 	sub	sp, sp, #12, 0
    da10:	e2504000 	subs	r4, r0, #0, 0
    da14:	0a000008 	beq	da3c <kmalloc+0x34>
    da18:	e1a00004 	mov	r0, r4
    da1c:	ebffffc7 	bl	d940 <kmalloc_notzero>
    da20:	e1a05000 	mov	r5, r0
    da24:	e1a02004 	mov	r2, r4
    da28:	e3a01000 	mov	r1, #0, 0
    da2c:	ebfffcc0 	bl	cd34 <memset>
    da30:	e1a00005 	mov	r0, r5
    da34:	e28dd00c 	add	sp, sp, #12, 0
    da38:	e8bd8030 	pop	{r4, r5, pc}
    da3c:	e59f3018 	ldr	r3, [pc, #24]	; da5c <kmalloc+0x54>
    da40:	e58d3000 	str	r3, [sp]
    da44:	e3a03062 	mov	r3, #98, 0	; 0x62
    da48:	e59f2010 	ldr	r2, [pc, #16]	; da60 <kmalloc+0x58>
    da4c:	e59f1010 	ldr	r1, [pc, #16]	; da64 <kmalloc+0x5c>
    da50:	e59f0010 	ldr	r0, [pc, #16]	; da68 <kmalloc+0x60>
    da54:	ebfffcde 	bl	cdd4 <printk>
    da58:	ebfffe0d 	bl	d294 <clean_reboot>
    da5c:	0000fe4c 	.word	0x0000fe4c
    da60:	00010004 	.word	0x00010004
    da64:	0000fe08 	.word	0x0000fe08
    da68:	0000e120 	.word	0x0000e120

0000da6c <kmalloc_aligned>:
    da6c:	e52de004 	push	{lr}		; (str lr, [sp, #-4]!)
    da70:	e24dd00c 	sub	sp, sp, #12, 0
    da74:	e3500000 	cmp	r0, #0, 0
    da78:	0a000014 	beq	dad0 <kmalloc_aligned+0x64>
    da7c:	e2613000 	rsb	r3, r1, #0, 0
    da80:	e1d13003 	bics	r3, r1, r3
    da84:	1a000019 	bne	daf0 <kmalloc_aligned+0x84>
    da88:	e3510008 	cmp	r1, #8, 0
    da8c:	33a01008 	movcc	r1, #8, 0
    da90:	e59f30b8 	ldr	r3, [pc, #184]	; db50 <kmalloc_aligned+0xe4>
    da94:	e5932008 	ldr	r2, [r3, #8]
    da98:	e2613000 	rsb	r3, r1, #0, 0
    da9c:	e1d1c003 	bics	ip, r1, r3
    daa0:	1a00001a 	bne	db10 <kmalloc_aligned+0xa4>
    daa4:	e0822001 	add	r2, r2, r1
    daa8:	e2422001 	sub	r2, r2, #1, 0
    daac:	e0033002 	and	r3, r3, r2
    dab0:	e2411001 	sub	r1, r1, #1, 0
    dab4:	e1110003 	tst	r1, r3
    dab8:	1a00001c 	bne	db30 <kmalloc_aligned+0xc4>
    dabc:	e59f208c 	ldr	r2, [pc, #140]	; db50 <kmalloc_aligned+0xe4>
    dac0:	e5823008 	str	r3, [r2, #8]
    dac4:	ebffffcf 	bl	da08 <kmalloc>
    dac8:	e28dd00c 	add	sp, sp, #12, 0
    dacc:	e49df004 	pop	{pc}		; (ldr pc, [sp], #4)
    dad0:	e59f307c 	ldr	r3, [pc, #124]	; db54 <kmalloc_aligned+0xe8>
    dad4:	e58d3000 	str	r3, [sp]
    dad8:	e3a0306d 	mov	r3, #109, 0	; 0x6d
    dadc:	e59f2074 	ldr	r2, [pc, #116]	; db58 <kmalloc_aligned+0xec>
    dae0:	e59f1074 	ldr	r1, [pc, #116]	; db5c <kmalloc_aligned+0xf0>
    dae4:	e59f0074 	ldr	r0, [pc, #116]	; db60 <kmalloc_aligned+0xf4>
    dae8:	ebfffcb9 	bl	cdd4 <printk>
    daec:	ebfffde8 	bl	d294 <clean_reboot>
    daf0:	e59f306c 	ldr	r3, [pc, #108]	; db64 <kmalloc_aligned+0xf8>
    daf4:	e58d3000 	str	r3, [sp]
    daf8:	e3a0306e 	mov	r3, #110, 0	; 0x6e
    dafc:	e59f2054 	ldr	r2, [pc, #84]	; db58 <kmalloc_aligned+0xec>
    db00:	e59f1054 	ldr	r1, [pc, #84]	; db5c <kmalloc_aligned+0xf0>
    db04:	e59f005c 	ldr	r0, [pc, #92]	; db68 <kmalloc_aligned+0xfc>
    db08:	ebfffcb1 	bl	cdd4 <printk>
    db0c:	ebfffde0 	bl	d294 <clean_reboot>
    db10:	e59f3054 	ldr	r3, [pc, #84]	; db6c <kmalloc_aligned+0x100>
    db14:	e58d3000 	str	r3, [sp]
    db18:	e3a03011 	mov	r3, #17, 0
    db1c:	e59f204c 	ldr	r2, [pc, #76]	; db70 <kmalloc_aligned+0x104>
    db20:	e59f1034 	ldr	r1, [pc, #52]	; db5c <kmalloc_aligned+0xf0>
    db24:	e59f0034 	ldr	r0, [pc, #52]	; db60 <kmalloc_aligned+0xf4>
    db28:	ebfffca9 	bl	cdd4 <printk>
    db2c:	ebfffdd8 	bl	d294 <clean_reboot>
    db30:	e59f303c 	ldr	r3, [pc, #60]	; db74 <kmalloc_aligned+0x108>
    db34:	e58d3000 	str	r3, [sp]
    db38:	e3a03076 	mov	r3, #118, 0	; 0x76
    db3c:	e59f2014 	ldr	r2, [pc, #20]	; db58 <kmalloc_aligned+0xec>
    db40:	e59f1014 	ldr	r1, [pc, #20]	; db5c <kmalloc_aligned+0xf0>
    db44:	e59f002c 	ldr	r0, [pc, #44]	; db78 <kmalloc_aligned+0x10c>
    db48:	ebfffca1 	bl	cdd4 <printk>
    db4c:	ebfffdd0 	bl	d294 <clean_reboot>
    db50:	000106a4 	.word	0x000106a4
    db54:	0000fe4c 	.word	0x0000fe4c
    db58:	0001000c 	.word	0x0001000c
    db5c:	0000fe08 	.word	0x0000fe08
    db60:	0000e120 	.word	0x0000e120
    db64:	0000ff38 	.word	0x0000ff38
    db68:	0000fef8 	.word	0x0000fef8
    db6c:	0000ff4c 	.word	0x0000ff4c
    db70:	0001001c 	.word	0x0001001c
    db74:	0000ff90 	.word	0x0000ff90
    db78:	0000ff58 	.word	0x0000ff58

0000db7c <kfree_all>:
    db7c:	e59f3008 	ldr	r3, [pc, #8]	; db8c <kfree_all+0x10>
    db80:	e5932004 	ldr	r2, [r3, #4]
    db84:	e5832008 	str	r2, [r3, #8]
    db88:	e12fff1e 	bx	lr
    db8c:	000106a4 	.word	0x000106a4

0000db90 <kfree_pop>:
    db90:	e59f3048 	ldr	r3, [pc, #72]	; dbe0 <kfree_pop+0x50>
    db94:	e5933004 	ldr	r3, [r3, #4]
    db98:	e1530000 	cmp	r3, r0
    db9c:	8a000006 	bhi	dbbc <kfree_pop+0x2c>
    dba0:	e59f3038 	ldr	r3, [pc, #56]	; dbe0 <kfree_pop+0x50>
    dba4:	e5933000 	ldr	r3, [r3]
    dba8:	e1530000 	cmp	r3, r0
    dbac:	3a000002 	bcc	dbbc <kfree_pop+0x2c>
    dbb0:	e59f3028 	ldr	r3, [pc, #40]	; dbe0 <kfree_pop+0x50>
    dbb4:	e5830008 	str	r0, [r3, #8]
    dbb8:	e12fff1e 	bx	lr
    dbbc:	e52de004 	push	{lr}		; (str lr, [sp, #-4]!)
    dbc0:	e24dd00c 	sub	sp, sp, #12, 0
    dbc4:	e58d0000 	str	r0, [sp]
    dbc8:	e3a03085 	mov	r3, #133, 0	; 0x85
    dbcc:	e59f2010 	ldr	r2, [pc, #16]	; dbe4 <kfree_pop+0x54>
    dbd0:	e59f1010 	ldr	r1, [pc, #16]	; dbe8 <kfree_pop+0x58>
    dbd4:	e59f0010 	ldr	r0, [pc, #16]	; dbec <kfree_pop+0x5c>
    dbd8:	ebfffc7d 	bl	cdd4 <printk>
    dbdc:	ebfffdac 	bl	d294 <clean_reboot>
    dbe0:	000106a4 	.word	0x000106a4
    dbe4:	00010024 	.word	0x00010024
    dbe8:	0000fe08 	.word	0x0000fe08
    dbec:	0000ffac 	.word	0x0000ffac

0000dbf0 <putk>:
    dbf0:	e92d4010 	push	{r4, lr}
    dbf4:	e1a04000 	mov	r4, r0
    dbf8:	e5d40000 	ldrb	r0, [r4]
    dbfc:	e3500000 	cmp	r0, #0, 0
    dc00:	0a000004 	beq	dc18 <putk+0x28>
    dc04:	e59f3014 	ldr	r3, [pc, #20]	; dc20 <putk+0x30>
    dc08:	e5933000 	ldr	r3, [r3]
    dc0c:	e12fff33 	blx	r3
    dc10:	e2844001 	add	r4, r4, #1, 0
    dc14:	eafffff7 	b	dbf8 <putk+0x8>
    dc18:	e3a00001 	mov	r0, #1, 0
    dc1c:	e8bd8010 	pop	{r4, pc}
    dc20:	000106a0 	.word	0x000106a0

0000dc24 <reboot_callout>:
    dc24:	e12fff1e 	bx	lr
